(dp0
S'3rcP/pjYJPEXqwYMPgcWBfEg1Bl5xi251SUgXn2jGr8='
p1
(dp2
S'pkey'
p3
S'LS0tLS1CRUdJTiBQVUJMSUMgS0VZLS0tLS0KTUlHZk1BMEdDU3FHU0liM0RRRUJBUVVBQTRHTkFEQ0JpUUtCZ1FDNmtKQlhncnVKMnljM1cwM1FQM2NETVp0eQp3UXJxT3NQRk8zQW5ZWHhYV1BSL3dmd0Q4bkhhT0ZDN2c0bHhWNFMycGNIQ0RoK0lhaWgrRWJxaEcxT3RtVFdwCmlJeXN5NkFhY0tEeW96NDc0bTBVTllpNGhEbGVrVktZSVB4ZDBZZFRuVCtSdk5CL3RhZVQveHplUGFJVmV4QUkKK0NNUFZYSk01bUhsd0VmUTR3SURBUUFCCi0tLS0tRU5EIFBVQkxJQyBLRVktLS0tLQo='
p4
sS'voted'
p5
I0
ss.(dp0
S'HmlPvMyMJg+nqL8eTvaRK4mJ3Xe7msrBklbs85k+t38='
p1
(dp2
S'pkey'
p3
S'LS0tLS1CRUdJTiBQVUJMSUMgS0VZLS0tLS0KTUlHZk1BMEdDU3FHU0liM0RRRUJBUVVBQTRHTkFEQ0JpUUtCZ1FETUNUUlVQZ2hQN01FbnpjRzVUU2VNTzBwRQpReGZGdVprejZsTWVLMVlYdEN0Tlp2K0cybHg0QkxSY3pRNWtpelZYVGIrTlBhemxvdWVnVytpa29TRVA5UXVYCmtmTXV6ZUZrendTaVczR1QzcEZJc1pCNW5HM0FzN3ZialRpM1A5MVM5ZjdvdjE3RFdSVnphMkJNbjB5Q2tYdEwKcTArY0hkaUFzZFNGMmRZTGN3SURBUUFCCi0tLS0tRU5EIFBVQkxJQyBLRVktLS0tLQo='
p4
sS'voted'
p5
I0
ss.(dp0
S'47IPveH1I0NT4bOSanuivuS1adD0siw5Dx/5VDn6yCU='
p1
(dp2
S'pkey'
p3
S'LS0tLS1CRUdJTiBQVUJMSUMgS0VZLS0tLS0KTUlHZk1BMEdDU3FHU0liM0RRRUJBUVVBQTRHTkFEQ0JpUUtCZ1FEQkdHYWdjZklReWpyN1JObElTaHlPUmo0YgpqTmVFQUVXa2I2cmp1VWlwaUMxWE44WW83dkRtZjdQRHpWbmgwQ045WlBTWmgrY1R6ZVEyMU9sQWVaUWF3bnYyCmxaVTJLenhBSkdlZ1N3cHVxaER1ZWh3WkVadGhWTSttWGFxMWlWRWZBeCtKbHBGSzJTTVRibFVXOXlSbjYxOUgKRDFSNEd0dXpHZ3J2TGF1emx3SURBUUFCCi0tLS0tRU5EIFBVQkxJQyBLRVktLS0tLQo='
p4
sS'voted'
p5
I0
ss.(dp0
S'GQYsTLCsF476QClk+OERjp6ysbxzXUwuEwHlMi6Er/Q='
p1
(dp2
S'pkey'
p3
S'LS0tLS1CRUdJTiBQVUJMSUMgS0VZLS0tLS0KTUlHZk1BMEdDU3FHU0liM0RRRUJBUVVBQTRHTkFEQ0JpUUtCZ1FDZVJTY2VXTGFpUEF4N2wwMmlTdlkvOVF5TwpLNVUzMU0xUWhUMlp2OGRQVXJPbXN3aVNkWTg0MzFERWMyYzVUUUg2V0s5OXhQcXhaVm1mTHJJYWNHK2pZOFVTCm14YjlKck5YL01yeGQyTW0vR1RyK1dXN2NvOFMxQmpIZVIrSGgvZXlJRGxaazdKY2pkdWdyT3BnZUl6Mk9ZZEwKc1lESmpVS2M0dlh4dXFZN2V3SURBUUFCCi0tLS0tRU5EIFBVQkxJQyBLRVktLS0tLQo='
p4
sS'voted'
p5
I0
ss.(dp0
S'NaYUysUSbiDf8hSbClc5OkfqS+1htPGLQ6cKt8ixthU='
p1
(dp2
S'pkey'
p3
S'LS0tLS1CRUdJTiBQVUJMSUMgS0VZLS0tLS0KTUlHZk1BMEdDU3FHU0liM0RRRUJBUVVBQTRHTkFEQ0JpUUtCZ1FEdnJlKzFrNjFvbXp1dHA5dUlBaEtlbnhaOQpwS0pFQ1c4blltWXc2U3B4enIwVmtxU2VqMjFRaTBhYi80RXlSbUtZR2hId2ZzMXdIQXA0R0FZK29FOWh3ZlhiClczaW80NVg3enlhUHV4UHFJdEo3T2tDK3RTSkxJc2lOdHJpQjlvZGFsVm5GMlh3MGZhOEhwMDBTcExLM3p2OXIKR1N1VVFXQ3JYZ3huZ0VRZE13SURBUUFCCi0tLS0tRU5EIFBVQkxJQyBLRVktLS0tLQo='
p4
sS'voted'
p5
I0
ss.(dp0
S'EuhHEpyGkKPX6D7VP30NOY31OSQeTie5Ed5kBrzeZIo='
p1
(dp2
S'pkey'
p3
S'LS0tLS1CRUdJTiBQVUJMSUMgS0VZLS0tLS0KTUlHZk1BMEdDU3FHU0liM0RRRUJBUVVBQTRHTkFEQ0JpUUtCZ1FDMUdEbG1JUXhGYVdNbDc1eDA2cTVNNDM5ZAowYTZicG45dTF4VloxVjZTMlJVOVUzWnFPajVKcWV0aXNRUEhaVTQwL0JTQUlBV1ltUm1QUEppL1d1UGZwZWxEClNSMTlHby9mMlY0WjNQdGpTRVBEQUtCUEJSRStFM3pNYktvZGF5WFJUS1VwOEJkY1RSMDdpQjhGdmpXL3J4YXIKSmZHUS8vbEdTdyt6M1h2THpRSURBUUFCCi0tLS0tRU5EIFBVQkxJQyBLRVktLS0tLQo='
p4
sS'voted'
p5
I0
ss.(dp0
S'QqpJwYVR7vqVCSEKbS1JmVpx//pis1vOPlnio87F9yE='
p1
(dp2
S'pkey'
p3
S'LS0tLS1CRUdJTiBQVUJMSUMgS0VZLS0tLS0KTUlHZk1BMEdDU3FHU0liM0RRRUJBUVVBQTRHTkFEQ0JpUUtCZ1FEV3gyclpqL2dLbnpyNlNiVDA4dSt5amNjagpVdkcyUjJ4M094d2VQUTdxT0pwQ2l5amtrdmRyalEvenJOOWNHd2tLTis5WnE4S3dUNWtkZURwT2Q3VVc3UVlqCnVJS0FrUGpPZ2JPRDEvYXJMVHBtTWhvVEZxWWNNeXpLaThmU3pudEJRUS9DSnEvOFo3K0VSSHZieXF1UWtMTGcKVmJnR1RYa3dzeW9KVU5BWlV3SURBUUFCCi0tLS0tRU5EIFBVQkxJQyBLRVktLS0tLQo='
p4
sS'voted'
p5
I0
ss.(dp0
S'DH5X1lRKzWqA4zp4M71rQkx5pRzkMR/LTc+8yH6TSZA='
p1
(dp2
S'pkey'
p3
S'LS0tLS1CRUdJTiBQVUJMSUMgS0VZLS0tLS0KTUlHZk1BMEdDU3FHU0liM0RRRUJBUVVBQTRHTkFEQ0JpUUtCZ1FEQmhhUTBDbW9vQ0xOdkZLeTdwckpMTXpySQpGUTFoc0JZTFhwcXFuaWhOYnNpQkxpc0VpeU9qYXgvV0F2SzdFUXhKeU9OWlVLR3VOMXdnYzVRYkxGbEhxbmtvCk9IanpXK254cDNsN2FyWjU1SmJiREhCaUttSWZsVWhsWFNxUHk4dXh4WjhlYXVjVnVoWXhyRUJVMFdpRVJIeHAKbzlncTNGWnFJbXRxQXJHTDRRSURBUUFCCi0tLS0tRU5EIFBVQkxJQyBLRVktLS0tLQo='
p4
sS'voted'
p5
I0
ss.(dp0
S'v4QUrdx+EPTmm6zz0Q3IRcpPL7NM3G/XLH/hc79RFEo='
p1
(dp2
S'pkey'
p3
S'LS0tLS1CRUdJTiBQVUJMSUMgS0VZLS0tLS0KTUlHZk1BMEdDU3FHU0liM0RRRUJBUVVBQTRHTkFEQ0JpUUtCZ1FDb1kvRTNjNFViZGNqam41cmRxSU0vVDdKaApmMktQa01YeEI2SGdOK3BQbklrMFZtVEQrY245ck1SYkFUN01DYzJKNFFSdTRnWnFsSms2YVF1WWQrR0NRd1JjCitjZnEzRElZZEEzb3d5WHhkLzBEUkRVNFFiTlhhNE05ZTRUS2Jzd0dKdEFJcDVCN3RNK0Y1RFI3VzF5NkdxZTEKdFBMcFUvbzgwK1E2aUZkZjZRSURBUUFCCi0tLS0tRU5EIFBVQkxJQyBLRVktLS0tLQo='
p4
sS'voted'
p5
I0
ss.(dp0
S'gidT0OF0pUZ153pZSbaIzsyVarCQ/NDwwNyneQ0VG4Q='
p1
(dp2
S'pkey'
p3
S'LS0tLS1CRUdJTiBQVUJMSUMgS0VZLS0tLS0KTUlHZk1BMEdDU3FHU0liM0RRRUJBUVVBQTRHTkFEQ0JpUUtCZ1FDc1BHSGFBWVhGMnBqSkFuR21rVVdsY0JBRAoxbkxhVjA1SGwxM2FvcktRQ3BtQzloTE4rbXpzRmFkT3hpRXlJeUhoTVRFdlFUSFp1aTc3M1A4S3AySDd3U3ZKCkxvYjdycEhXZXFXaFhNRyttcDJFL1c2ZDNFb1NseUt2b0lkczAwSlpWQnpsN0pudXNNRXpWWWxWSmZzd1BLWEwKK2hOMVgvRU9vM2gyNjIybG5RSURBUUFCCi0tLS0tRU5EIFBVQkxJQyBLRVktLS0tLQo='
p4
sS'voted'
p5
I0
ss.(dp0
S'Ft4lmIqdfiDN7mdgCkknNOJrOdvQTgOYko+pTfgeExI='
p1
(dp2
S'pkey'
p3
S'LS0tLS1CRUdJTiBQVUJMSUMgS0VZLS0tLS0KTUlHZk1BMEdDU3FHU0liM0RRRUJBUVVBQTRHTkFEQ0JpUUtCZ1FDWGZacnEwYXQwNGNqSFN6cnhxOFlPbTdaVQorbTNFakIvTjhKOTNYNjhpMDVyeTByZjQ1YVloamVBMFlUUHh1dHRoTjNlQ0tHN0NxOURLamJLS1FPZTNDYjB5ClpzZXJZczJRK3ZGcEoyaS82MU9rUWIyZG9rRmpBQ0FiTkZ2UW1kMzl0WTNKVjl2U1paVmxIbFIrSkdNSGhLN2QKb3k2ZTlJTlh2UVl2QlNDcmt3SURBUUFCCi0tLS0tRU5EIFBVQkxJQyBLRVktLS0tLQo='
p4
sS'voted'
p5
I0
ss.(dp0
S'eWqO2nCI1PB69LuQ0rwbmz8q+LFb2mPEu0SGYGl8udw='
p1
(dp2
S'pkey'
p3
S'LS0tLS1CRUdJTiBQVUJMSUMgS0VZLS0tLS0KTUlHZk1BMEdDU3FHU0liM0RRRUJBUVVBQTRHTkFEQ0JpUUtCZ1FDeVlkY0k1YXg2QnAzcklqV2FrWS9rdlhKMApaajdLM25xQkFCWTZPYWIyYTYvQVJHOW5zaWlDZlY1Q1pBajJKejlXRzhWNm1TbnRPaExHbHRhOVlIOU5sKzlhClRHMjJ2b3hKQXhEYzlneFhqRG1vUWVtd3pBZC9lU1JmSERZR2I2WlV6OUR4Nk56dFUzTm5LMkdndGNGK1cvTEkKOHVGclFzZ3l4a3pqQ3lSeFhRSURBUUFCCi0tLS0tRU5EIFBVQkxJQyBLRVktLS0tLQo='
p4
sS'voted'
p5
I0
ss.(dp0
S'TfqJNUCbdnVkaVyFTyLl7sjakPXstG4gM1evLQEM/wk='
p1
(dp2
S'pkey'
p3
S'LS0tLS1CRUdJTiBQVUJMSUMgS0VZLS0tLS0KTUlHZk1BMEdDU3FHU0liM0RRRUJBUVVBQTRHTkFEQ0JpUUtCZ1FDeTQyWU1YbWtpQnFyOGFJNm5CSkh2NXRIWApGQnVKd0IxTTllTWdlY0ROQWVnaS8wcWNpVGFodmFhTXF2ZXg3WXhjUEs0K1AxYjBXbkFNTHhFUVNLOUZiUEM3CmV2ZDJTck5GSFFtbkhXdnJZRG1oMW81VlR5NzdGK2lDN2VaWldDcHpvVHhhbDlhTFJlRkRzMWZjUGVSVjloMjMKNk1EUEkwVFM3SFhnRjRpaXNRSURBUUFCCi0tLS0tRU5EIFBVQkxJQyBLRVktLS0tLQo='
p4
sS'voted'
p5
I0
ss.(dp0
S'F7WGEbSRqaXAW6+JzrmZu4RtTgVVJGCLXO8hsdKys8o='
p1
(dp2
S'pkey'
p3
S'LS0tLS1CRUdJTiBQVUJMSUMgS0VZLS0tLS0KTUlHZk1BMEdDU3FHU0liM0RRRUJBUVVBQTRHTkFEQ0JpUUtCZ1FEVndHcm1sUWoyQitlWHA4SE11ODdIRHQ4cAovT2JQc1NSTnNEendaY0FydXRaR3EwdUtjYlBYVVdQY1RqQmJlZWU2VnBpZ1lKak40VmZRaStPajErWmlWbjczClhWamhEODBiUEZsUmpGUzlwV3E3SEh4T3Rzc1lZK0Y3Z0VabmxOTktLQjhLTTZJcnlRaU1IM0I5RTJ0OGNwQWcKS3dhRkdudTJ6OURUdEgrNnNRSURBUUFCCi0tLS0tRU5EIFBVQkxJQyBLRVktLS0tLQo='
p4
sS'voted'
p5
I0
ss.(dp0
S'tZzfJ82Z1rri2IiOTj3EHB7lHzrsztx1xxOq4Psnz7g='
p1
(dp2
S'pkey'
p3
S'LS0tLS1CRUdJTiBQVUJMSUMgS0VZLS0tLS0KTUlHZk1BMEdDU3FHU0liM0RRRUJBUVVBQTRHTkFEQ0JpUUtCZ1FDblNlcVc2VXFwZWd2emRISk8vaEg2anpxcgoxM29zc3RtT0ZhaU44R2wxY0VkSCtnYlpXRFVnM3lqaVpSZDNXTmRhYkljdXVHeXBOU1kxZ1RZVlozQUV3c1g1ClNkbTNMaHJzUW5SdlBabW5yblNiZytIbmVZaDVIM3N6M29DV2ViakZFNnZtK3dRbkg3RzlUb2gzN2dkRlVqdUQKcGtuM0syUTVxQjNqOXpBSXVRSURBUUFCCi0tLS0tRU5EIFBVQkxJQyBLRVktLS0tLQo='
p4
sS'voted'
p5
I0
ss.(dp0
S'Di8khCf7WawdLg20T8OKvXOE5wiR9udJVM8ZuGRxHHQ='
p1
(dp2
S'pkey'
p3
S'LS0tLS1CRUdJTiBQVUJMSUMgS0VZLS0tLS0KTUlHZk1BMEdDU3FHU0liM0RRRUJBUVVBQTRHTkFEQ0JpUUtCZ1FDakpLcG41VjVOQnR6UjJpb09xUWIyY04vQgpzaWJBbnZVMEVaeEpmWmt5Q0R5QUIvWTdiY0NkMmNsK2g3amFINGJXa1lvMFdBcU4rUW15ckZ3YWM4Wkt1aTZrCkprdjNYY001ZURYMXFxU2VvT3ZIeWw0NUdhbjJOTHBmd1BOUGhMM3ppQ1U3bkk3MTFjMWVDWlkwT04veFNMU3QKZzNHVk1ERXlBSlAyZzNORDhRSURBUUFCCi0tLS0tRU5EIFBVQkxJQyBLRVktLS0tLQo='
p4
sS'voted'
p5
I0
ss.(dp0
S'poU/iuTLYU5QAX9vHV+jnGaMgP2V5wZVYtMnfTfxm5I='
p1
(dp2
S'pkey'
p3
S'LS0tLS1CRUdJTiBQVUJMSUMgS0VZLS0tLS0KTUlHZk1BMEdDU3FHU0liM0RRRUJBUVVBQTRHTkFEQ0JpUUtCZ1FDb0ZXS3MyRWtYVG1KZExKenUyY0pLVUxCSApFNEgzZ0RNNG0vZ1dMNVRqRWp2V3pQT0drYW5QcEtKZk9zL2thcWRPdTE2N25wbjU5QXVxVDl0bVZaczFHUTYzCmo0blJ2L3RkYzlGdVVQM2dKZkE1SU42eXYvT3BWNS8rQXFhK2NpUFZQdzY2aFBDclFyRzdTdHI3VTI5eGNzVUkKdFA4MmxyTmRRTVFZVE9oWmJRSURBUUFCCi0tLS0tRU5EIFBVQkxJQyBLRVktLS0tLQo='
p4
sS'voted'
p5
I0
ss.(dp0
S'KVWuZmPx1oWo3A9LBjK5Jb7judGdDsXPYuJWDT+FVSY='
p1
(dp2
S'pkey'
p3
S'LS0tLS1CRUdJTiBQVUJMSUMgS0VZLS0tLS0KTUlHZk1BMEdDU3FHU0liM0RRRUJBUVVBQTRHTkFEQ0JpUUtCZ1FDdmZ1bTdnVjNOemIvNksxRTlDU1Zmd1BXYwpDNHhnVHdUNklaNGVLMnh3Z1c2bWNvUFU2dUxJQzIrSmRYVHVGSyt0K0x3Z1NCS1VWTHlKdTJpYnlzbnFpYnZiCjlaWi9LNzNGUXZIWi9EWUtKVHdrU2VicVlQcnNjVTZ4MDFwcFMvN3dBQzNKd2VTbzBIQkVPVjU2OEd6TkNUTUkKYnFOblQ1V2huYXlmbE1GNVN3SURBUUFCCi0tLS0tRU5EIFBVQkxJQyBLRVktLS0tLQo='
p4
sS'voted'
p5
I0
ss.(dp0
S'a3fQzz4oKLFaSk1nriCLVV1g9+FL9gmP/2XoBc128zQ='
p1
(dp2
S'pkey'
p3
S'LS0tLS1CRUdJTiBQVUJMSUMgS0VZLS0tLS0KTUlHZk1BMEdDU3FHU0liM0RRRUJBUVVBQTRHTkFEQ0JpUUtCZ1FDZWd0aUFmMEtTbnUxcHlORUdSa1FWdEJuZwpHaTIrMjA0NGNGa1U2Y0xGSFo2WDVaOExWdkY1ZmZjUytpM3p1c3JjS2FrNGRQR2NaMXdvSmIzTE9aZml2RmlNCkxoOWhHRlk0Zy9tT2RKcGY5VE5heFJDaFZDMmtiazA0SWN5Tm9vSkx3QnNhUFZBSld5YjFJWHNBQXRJdFZkazAKMzI3MG8wNHdkZ29Ecnh2T0pRSURBUUFCCi0tLS0tRU5EIFBVQkxJQyBLRVktLS0tLQo='
p4
sS'voted'
p5
I0
ss.(dp0
S'dNxuynV6nbybi6JiEvofovQ+luXUUS1juhRJpy4lvm0='
p1
(dp2
S'pkey'
p3
S'LS0tLS1CRUdJTiBQVUJMSUMgS0VZLS0tLS0KTUlHZk1BMEdDU3FHU0liM0RRRUJBUVVBQTRHTkFEQ0JpUUtCZ1FDKy9jVElSazNpcmk1UURBR2RQZGptTFFWcwpZc3JnVm4wVDZYRFErMGVPc3F6aUdxMWVEME1vZFBRRWJHSFg1YXR0UWUxbklURUVuRm5jM1I4VEhxcVFNeUxYCkxVZGRiTkwyR2wvUmt1MVd4bkorTDRqeWdROGxWaS91MUtXRE5iY0xYeTlsbDVKVG5xNTc5Z2liMlAvWkJnemMKbUs5UnYxQnlvNHV0czhQU1V3SURBUUFCCi0tLS0tRU5EIFBVQkxJQyBLRVktLS0tLQo='
p4
sS'voted'
p5
I0
ss.(dp0
S'WGYBHLtLa9KR6RJkQqiopucYQzHmrtIUhVQEkFcd9UA='
p1
(dp2
S'pkey'
p3
S'LS0tLS1CRUdJTiBQVUJMSUMgS0VZLS0tLS0KTUlHZk1BMEdDU3FHU0liM0RRRUJBUVVBQTRHTkFEQ0JpUUtCZ1FDMmsrQUNOM0E1enpDbFhScWlMRWQ2YlRHcAp3T01uUGVqeEpaOEpld3U2VzJSZGpVZDF3MWZzN0dCMm1SMjUvUXZZeGd1VUthVGdRWGd2aUViL05LdkV1Y3psCnlEU1VhQmVNUnllazF0aHpVb0RzaVRHc3Q2d3ZCN2dkekg3OWlZbWM2TmQrVGxwM3dRWTYwNFRodlJCRVVkTkEKRWpKcjViMDZzeTJsZEFueDFRSURBUUFCCi0tLS0tRU5EIFBVQkxJQyBLRVktLS0tLQo='
p4
sS'voted'
p5
I0
ss.(dp0
S'iqchc8tu0ItJkqexwzUVn75MnmiZkaT0qABSkx8fnhQ='
p1
(dp2
S'pkey'
p3
S'LS0tLS1CRUdJTiBQVUJMSUMgS0VZLS0tLS0KTUlHZk1BMEdDU3FHU0liM0RRRUJBUVVBQTRHTkFEQ0JpUUtCZ1FDc2FpdmNoZUhvemhjcjF1ZFRMa2hOQWtZQQpDZWxUS3hEVk1sRG9BTE9IWWl5ZHBUREZmUVpBNS84aGR1Y0JRMjVOZDRvMktXbFBZTlYvdnZnY0dXZDB6QmZHCkVJS2trSWJIYlZUWlgzV3poNDBaSmtuRmtGYzlzekFneXJBUEZNbzd6S1VGSnFucUFIcDZUSnAwN09HM3pLNEEKbG1ld1M0TXkrTkJKcmtTK1Z3SURBUUFCCi0tLS0tRU5EIFBVQkxJQyBLRVktLS0tLQo='
p4
sS'voted'
p5
I0
ss.(dp0
S'77p+upOZJwwn/YKYlTMQCs1PCmgoF8QJRxSwhmGxnA0='
p1
(dp2
S'pkey'
p3
S'LS0tLS1CRUdJTiBQVUJMSUMgS0VZLS0tLS0KTUlHZk1BMEdDU3FHU0liM0RRRUJBUVVBQTRHTkFEQ0JpUUtCZ1FES0RyUUVteTY1ZjZZeE1jbnVCT0tjNlNsUwpvM2tDQ0RhM2RjQk9lM1NSdDA3dFRaRmVqaU15ajFrWTBVNUlJVFp4bnRnQWNJclhMTC8yWUhRZmUxTHdCb0g3CmlrRVlKblNYRGZpMHN4SkR1cURoS0tISkJQY05DbHl2VENBdHFGNWpnekRWWXVJbFFMSjA4cGRuZnFrdzJhUEQKZGYzcFNERGdPM05ONzR2MkV3SURBUUFCCi0tLS0tRU5EIFBVQkxJQyBLRVktLS0tLQo='
p4
sS'voted'
p5
I0
ss.(dp0
S'LsFtaSSBbib8RIzM5XbLskVK3GVNgdmyAg7HLXidRSo='
p1
(dp2
S'pkey'
p3
S'LS0tLS1CRUdJTiBQVUJMSUMgS0VZLS0tLS0KTUlHZk1BMEdDU3FHU0liM0RRRUJBUVVBQTRHTkFEQ0JpUUtCZ1FDN0J1ajI4dno0R1NOQk15cDAvT3hXenlwcgovZEQyMEJMczZJSmNBRm5IZVBoblh6VWozdVNDREl6dU1na3lXckpEb05jWDVZMlFhWmFZdGUramZ5Z0duL0MyCmhKUEFJcllkOEEycjJXODhQc0JGdFVYUCsyaGo4ZDFHa1VuTGV2cHY2Y24yaEk2cC96UFgzV0YzdlF1cklMQVMKV05vMFBsT1ZMNEhHSUtRMTN3SURBUUFCCi0tLS0tRU5EIFBVQkxJQyBLRVktLS0tLQo='
p4
sS'voted'
p5
I0
ss.(dp0
S'8dTG3SvbJ/eQ6DpmOH0PcpCLup2Uk1UljYJs3r1qQ74='
p1
(dp2
S'pkey'
p3
S'LS0tLS1CRUdJTiBQVUJMSUMgS0VZLS0tLS0KTUlHZk1BMEdDU3FHU0liM0RRRUJBUVVBQTRHTkFEQ0JpUUtCZ1FDa2VXYk1ZOG9pOHlDM09nMjhzWjRrTlN4KwpwOUxaQjk2Z2dOekZMSmszdTRMSmNJZ0xmeS9UU2lUUkQ3ZzBaaVgvTEgwVzFaeDZ5d3o2YkxWSGIrM3l3TGVyCkk4U2ZMb3VKbDRjRng1VmlobjlWaWh6a05JT2k0b0I4Z3FCTXVZcnduS0RtSTZ4WTV3NWg4eU10N0YzaUcrM0oKMk5vbzFWbjZHaVduaGN1Z3p3SURBUUFCCi0tLS0tRU5EIFBVQkxJQyBLRVktLS0tLQo='
p4
sS'voted'
p5
I0
ss.(dp0
S'blrN580zk5lqTCTPc4Qj2vFXG8Y/TWpYLjfkbBfTF78='
p1
(dp2
S'pkey'
p3
S'LS0tLS1CRUdJTiBQVUJMSUMgS0VZLS0tLS0KTUlHZk1BMEdDU3FHU0liM0RRRUJBUVVBQTRHTkFEQ0JpUUtCZ1FDK0pvaDFnVzRXbjY3dENwN0w0aDZWa056TQpxUmNaM2lCU0E5VkZPNGhSNjdNNGRlOUdMNk56ajJJN0diVFdONHNoeFJiaVk2UHZMTGhNc21KQkFUa0NQZm93Cm5vZkxKYUZGWHhWSStLSXVYRzZVUEV6K05YdjFoc2FKWjFsRjNTS1J0VHJoVnRmNzh4cjc2Q2l3TmhqQitjTnMKaS9vaG9HU2QwL1JBa2tpNFZRSURBUUFCCi0tLS0tRU5EIFBVQkxJQyBLRVktLS0tLQo='
p4
sS'voted'
p5
I0
ss.(dp0
S'f5SFlorVDKGKnUWppyF+tyRw2AlWaEV8D2ounhSXDNI='
p1
(dp2
S'pkey'
p3
S'LS0tLS1CRUdJTiBQVUJMSUMgS0VZLS0tLS0KTUlHZk1BMEdDU3FHU0liM0RRRUJBUVVBQTRHTkFEQ0JpUUtCZ1FEUTVZZVU4eFZXVTV4RGQ3L3FKVWdGQVJ1RQpBKzhEcXdmZ1RpZyt4emtVZkxWUUZzU1VSU2IyT0o3SWhiK3JpbVNaNC9ydTRtSFVpbDkyUjZ4NUM0T1JCVkZFCkZWeFc5cEpneXh4bU5VYWN4VUNwS0NQWU1YOXd2ZWhiRHhkbS95czl4aCtpaHlFSnZEbUhIRzZJWmt1SDdvckEKM2xEWVJZYlJ0K2pKbi9CSDJ3SURBUUFCCi0tLS0tRU5EIFBVQkxJQyBLRVktLS0tLQo='
p4
sS'voted'
p5
I0
ss.(dp0
S'hP2OvXV1PFJ+4PbTm+rC5kaA6QiIz9ucQedaQrBKnPg='
p1
(dp2
S'pkey'
p3
S'LS0tLS1CRUdJTiBQVUJMSUMgS0VZLS0tLS0KTUlHZk1BMEdDU3FHU0liM0RRRUJBUVVBQTRHTkFEQ0JpUUtCZ1FDeThKV0RUbE5PQXYvblFFRkllMlpHa1FxYwp0clNYbkxoNVlXaDZQOVdLbUw3SE1TTHVjQ0R4a1gycWRWZmExb2pnRG1Qc2t0akdKWVdocmltdlBKN0VnamhCCmFsMWFDOG5OSlBqWU5qMVhpaDhueVQzRUxCTkFSMzh5MGhnSC90aHhtMWNEbXIvS0Z4WENGOTIzTUVpeitUY1MKSi9kWTVUeUl1anp1a093Z253SURBUUFCCi0tLS0tRU5EIFBVQkxJQyBLRVktLS0tLQo='
p4
sS'voted'
p5
I0
ss.(dp0
S'H0SS5aaj5sregm3IOtAMyN1mK6o8or/j2KvXgoX4fHk='
p1
(dp2
S'pkey'
p3
S'LS0tLS1CRUdJTiBQVUJMSUMgS0VZLS0tLS0KTUlHZk1BMEdDU3FHU0liM0RRRUJBUVVBQTRHTkFEQ0JpUUtCZ1FDeE1hejVrQUNoY3RFb094c2xvTEpyQVBidAplVGxiYUVTYkJ6Mk9FQUoxTElSbnRBYy8rVVpPZ0dUdzZkcjh6SmdWcGpLMExrTmc0cVM5bDNGY0pLb0NNSGtQCmU5SDRpOXlLVTBWQ081L1RiNTN3QnpMbW4yN1hRbDA4dHBQc0pnbW0xR0duaGNkQlpQTnM1U1hCSHRXdXFrZXoKRWVLZEZDNytSZXZyaW95WWlRSURBUUFCCi0tLS0tRU5EIFBVQkxJQyBLRVktLS0tLQo='
p4
sS'voted'
p5
I0
ss.(dp0
S'tiinN5yVZna1UuQjfp1dxfbhX1+A2zu4/ZhwLx/4u2w='
p1
(dp2
S'pkey'
p3
S'LS0tLS1CRUdJTiBQVUJMSUMgS0VZLS0tLS0KTUlHZk1BMEdDU3FHU0liM0RRRUJBUVVBQTRHTkFEQ0JpUUtCZ1FEUzdYdVF5aU0xTEpUQ0JJQnJweXpmdFRiTgphNmlYSTA0TFZWSS9NZGxPK2NCMkw3TWNmMmFuc09VcVJZWkowTHNCUTBGWldUcmtnVWhQaSthT2ljc0RZQWpJCmJ5WjM0STBwNnFZZjZxT2FmMUZjblN3eG1iaE1HbzhqRW9kTVl6SE5qVDViSU44cmExRjMvZ2RYNytDSSs3MWwKR0w3NVQ3K1NGbHNVYkdJV3dRSURBUUFCCi0tLS0tRU5EIFBVQkxJQyBLRVktLS0tLQo='
p4
sS'voted'
p5
I0
ss.(dp0
S'UC8SgfMemdFeC4dNNu20y87ppj5FyosrNtzYHJR/zn4='
p1
(dp2
S'pkey'
p3
S'LS0tLS1CRUdJTiBQVUJMSUMgS0VZLS0tLS0KTUlHZk1BMEdDU3FHU0liM0RRRUJBUVVBQTRHTkFEQ0JpUUtCZ1FEZ0d0Wm9jTFhxQjd6ZlZqOGIwbHBpd21nTApFbWtTeFcwNDBEMndGRjRZRDN1cVV3UVVaZlRVb2lPMC9zUVEyOCsrQUhWaWhWbkFENmUvZ1FVN3lTVHBNTGJqCnkvQ051NEtxOFlaZXJaaHh2azJOZkpkc0ZUVWRPZGp5WW1zS01PakNuT3dBVVNyeE1IMU4zNzVFdTJWSUFaaTEKbmV1OEtqUFlyY3ZYSncxUDZ3SURBUUFCCi0tLS0tRU5EIFBVQkxJQyBLRVktLS0tLQo='
p4
sS'voted'
p5
I0
ss.(dp0
S'vTUlFhIYpEeDw3d2O/JKFBA36DFBSMZeQJRFgHXXyRE='
p1
(dp2
S'pkey'
p3
S'LS0tLS1CRUdJTiBQVUJMSUMgS0VZLS0tLS0KTUlHZk1BMEdDU3FHU0liM0RRRUJBUVVBQTRHTkFEQ0JpUUtCZ1FERHhiVHZYQUZoTTV5RjhheDlmVTUyaytMOApDYkVvZk1HTFd4eHMyUHRNNHF6bUk0ZkR4QUFabXpGdnNhc2toalR4STZ1Y3V1UGlZV3I4eE10SmpnWHBtcU9PCjhpcVN4SC9zT1M2OFBFVFdFc2ZUV2pBV25GUVZSdjVRV25mOXRKSWRCN0NjdUE3UXRpc1ZnVkdnNTdnWmVuQkMKUDMyRVRxb2dUTzFjYXVxM013SURBUUFCCi0tLS0tRU5EIFBVQkxJQyBLRVktLS0tLQo='
p4
sS'voted'
p5
I0
ss.(dp0
S'uIQYdFuUbo5IcTcYbZT3ds4tWtAXfITmES/Ayxa4PVo='
p1
(dp2
S'pkey'
p3
S'LS0tLS1CRUdJTiBQVUJMSUMgS0VZLS0tLS0KTUlHZk1BMEdDU3FHU0liM0RRRUJBUVVBQTRHTkFEQ0JpUUtCZ1FDYk1zTEgrbmVuRUJtUUYxc3orMXEvOVlJMQppMTFCY1UwWEZaUmxFYlBUSlFncFMwQW5YVUwvZTluRW0wL1RhYU9FakZiR1hpTmlUb0JJanpWSjdvdE8zTFhkCm5LWHVJNlUzdTYrc3hRRkpQVWxYZHh0U2hIYzBjQmI1aXUzM2VieU1VRTU0Z3Fzam1MVVV2Nm5kRFJGWStTZGYKMGV1RGpaYlh1OG5rWEdKdnV3SURBUUFCCi0tLS0tRU5EIFBVQkxJQyBLRVktLS0tLQo='
p4
sS'voted'
p5
I0
ss.(dp0
S'hBexvfbUp3hpwdCDUU4K03BECv4PpErw/X1NH1e5iNA='
p1
(dp2
S'pkey'
p3
S'LS0tLS1CRUdJTiBQVUJMSUMgS0VZLS0tLS0KTUlHZk1BMEdDU3FHU0liM0RRRUJBUVVBQTRHTkFEQ0JpUUtCZ1FDZ1ZPbGR2STdQOWRoR1RqUlVMMWRBSmZWTgpsVEplcmx6TVpQOXg2WFVYaGNwUTdMdEppYXhsVjkwRGJ5L01Ra0syT0xXWTNTRXVmb0FQT1NsMXhjRTl5enFaCi84U2FKNlFsY3ZMQXJSQUlZMDVpck10bVFUcE9BZ21iWDE2UUFCSlYyYndDQ1gxU3R4eUZiMldxcVFpZjB1MGEKdFFvYml3Ykl3bksrWkFPVC9RSURBUUFCCi0tLS0tRU5EIFBVQkxJQyBLRVktLS0tLQo='
p4
sS'voted'
p5
I0
ss.(dp0
S'PCtouJWOO8G4zZa+3EvwdPU2r70MgQ5Pnq/3G4S2RcQ='
p1
(dp2
S'pkey'
p3
S'LS0tLS1CRUdJTiBQVUJMSUMgS0VZLS0tLS0KTUlHZk1BMEdDU3FHU0liM0RRRUJBUVVBQTRHTkFEQ0JpUUtCZ1FEalYxandXeHZKUmpsYThON1BwcFU2RU12egovbTg1YjkzUGczNm9JeWlVWEl0aHFvTm03MVMzdFBRL3pqVWhHd2k0dDdrQmgvUjl0NUNJSEVMOWlPRm11bUsvCjNGOU1pZ1ZjdEhQNU13dU1TNzBzbUMxWDFrbzlVQXM4Z3NWQnhTN1Fjc29FSjdyY1dxOUtxS2NCMkVWckhqd1AKNm1WbCtFLzhmVHl5bWR1MGt3SURBUUFCCi0tLS0tRU5EIFBVQkxJQyBLRVktLS0tLQo='
p4
sS'voted'
p5
I0
ss.(dp0
S'EC/GjxHlUq0peRwlcbKiuZ+CzEJ7ly5r6e67HchVblA='
p1
(dp2
S'pkey'
p3
S'LS0tLS1CRUdJTiBQVUJMSUMgS0VZLS0tLS0KTUlHZk1BMEdDU3FHU0liM0RRRUJBUVVBQTRHTkFEQ0JpUUtCZ1FERlUvaXNhN3plemZ2WHh0WHgyRWFsSUFmKwoxdC9nUGZFb01vVGh5RlN4aisydVNTajZyQmJsTFloNHIyS1pnUWFla1FqR0NId1Z2cytwcmUySEVkMUpWZGsvCmVweDQ5ZDBmOHR2VGNtakFIZjg3dSt5VXI1WVB3dDBtcWdpK2tKM0c1R04wUHExNW8xNXVnVXpFWnBEb0c1WlYKcnBOdEsxeVdKV2hTNUZ3ZzR3SURBUUFCCi0tLS0tRU5EIFBVQkxJQyBLRVktLS0tLQo='
p4
sS'voted'
p5
I0
ss.(dp0
S'19HpZJB8J1oEvqU3f+yZiHS13ViSXdSMpEnzErlqVaY='
p1
(dp2
S'pkey'
p3
S'LS0tLS1CRUdJTiBQVUJMSUMgS0VZLS0tLS0KTUlHZk1BMEdDU3FHU0liM0RRRUJBUVVBQTRHTkFEQ0JpUUtCZ1FEQU9jUC95NnV5Q01xTXFrOVYzL01GSGlaVwpMdXQxMjM1T0poa0huSTcrSHVRWmxJcmJ1RzlreU5oOWpZMjBCdUljVk4xVWNqdVM2bmZ3WmdWaEFBdjVZUXVECi9JVG0wd3RHd3p0OE0yeDg5ZFhCTkg1U2N0UUNnRDkrYzF4NEt5blRXSzZCS3UwT1pJNitMMmZxcCsxQ2dyTm0KUTJnS3JGTWc0MXhGRS9ldnpRSURBUUFCCi0tLS0tRU5EIFBVQkxJQyBLRVktLS0tLQo='
p4
sS'voted'
p5
I0
ss.(dp0
S'X6yZhbwQVyelyCzFpPRCC7pWbciYwEPyq2TTcAFNt9o='
p1
(dp2
S'pkey'
p3
S'LS0tLS1CRUdJTiBQVUJMSUMgS0VZLS0tLS0KTUlHZk1BMEdDU3FHU0liM0RRRUJBUVVBQTRHTkFEQ0JpUUtCZ1FESnJnZjJFejJBYlFydmdZd1M5N0JES2xINwpaTzlDVW0rTjVzQXRhSjd3V2VBTWNHeTQrOWRDL3A5aHdhRHpab1pscjZhSml2RjVyWGw5WVllWmNySU1qQjRMCm9UUW5HaDdDR0NQWm5ZWmhTZWtBWjJ0M2VSWlF0M1RSbkJMVTYwOFVvTGhLV1hoazFoNWNKcEdkYkV1blhPYVAKaUgvc0dsdEQraUxUYVF6aHh3SURBUUFCCi0tLS0tRU5EIFBVQkxJQyBLRVktLS0tLQo='
p4
sS'voted'
p5
I0
ss.(dp0
S'efNmr6G69g8wGga1AEGt1zjxIwT1roGMgYpxw/8dDYY='
p1
(dp2
S'pkey'
p3
S'LS0tLS1CRUdJTiBQVUJMSUMgS0VZLS0tLS0KTUlHZk1BMEdDU3FHU0liM0RRRUJBUVVBQTRHTkFEQ0JpUUtCZ1FDN3pIdDE1WDNtRXJIdlViK04vZ1NjN0lYdQpnQWYwU0lGTGFlemdUQk9Nb1JYSEFmKzVxZVVxMytrcjFWdTZsNU14dG9wS2FuYXo5dlVmWlhtR2o3MHBLZWVYCklTRE9aUHFnSmxqdmRNRlJzZjhGTFBZT09uc3AxQm5ud3NFRHY2OHNtMXoyM2pKNXI0TE5BbEg0MG54VGZrcVQKbVozMTZybDE5cEtFa0F2QlV3SURBUUFCCi0tLS0tRU5EIFBVQkxJQyBLRVktLS0tLQo='
p4
sS'voted'
p5
I0
ss.(dp0
S'DdTvblFMRbUcMncaF13LIOTC6RVcSR+7BmC3btA7FvA='
p1
(dp2
S'pkey'
p3
S'LS0tLS1CRUdJTiBQVUJMSUMgS0VZLS0tLS0KTUlHZk1BMEdDU3FHU0liM0RRRUJBUVVBQTRHTkFEQ0JpUUtCZ1FERWcrK2ZUaXNUQkk3ZHY0ai9YNkxIeFh6QgpoaWMyOVlOOWw5Q1ovWlVqV2ltTVZkTGVldFY4VW1HWlJ3cHQrblh4eVBvYlkxeXpwTDlTUG81TTlyV3U3ZWdHCmVQUW0wVy81UzFUYllxVDhwY0xKd1BUTklIOGkxcE9XQTlhL2tzc3VjRCtQR0lPbWFGVUdwaVlDVTVveXU4UWUKd2dWWG56TDFhLzFycmsrdm5RSURBUUFCCi0tLS0tRU5EIFBVQkxJQyBLRVktLS0tLQo='
p4
sS'voted'
p5
I0
ss.(dp0
S'nx6sx/uzdNmNyM6p8usSp3+kx0AVfBF6qRpdkTXT67U='
p1
(dp2
S'pkey'
p3
S'LS0tLS1CRUdJTiBQVUJMSUMgS0VZLS0tLS0KTUlHZk1BMEdDU3FHU0liM0RRRUJBUVVBQTRHTkFEQ0JpUUtCZ1FDODA0eFRnYWEzWFlLVEthTXdYOU9kQ2wyNwp5Wnlsc1lwUHQ2WGVWMCt6NGdCT2hkc1BXdExPLzkwWjVmWjY4a2VhcW56YzMvRm8yQjh1RmRmYXM4Q1RuTk50CkY1VVBzRk9aZVNpUTgxNU5HdnlBYzdtN28xYVg5N1cxVGxzcVkxREM1Mlk3dTg1UFhwZGM0NUk5WmluVFR5TWQKUlVhREs4THZvU2pQRmhNT0dRSURBUUFCCi0tLS0tRU5EIFBVQkxJQyBLRVktLS0tLQo='
p4
sS'voted'
p5
I0
ss.(dp0
S'4sVQHhScXUb87F0MLQ77JwcqSXRIFJwdk8rLjwDmBdQ='
p1
(dp2
S'pkey'
p3
S'LS0tLS1CRUdJTiBQVUJMSUMgS0VZLS0tLS0KTUlHZk1BMEdDU3FHU0liM0RRRUJBUVVBQTRHTkFEQ0JpUUtCZ1FEWU01V0p6RldCYjlzeHozaDgzd1NhQjgrRwpVRVJwOXU0RldvTlJIZ2R3S29UblZKaVJKK2k4NExxTHdwL3N6dUlGNUhxbzhIVVhuR3J4N3ZpWmZodjdha2VMCjF3WlBiUmNqdmUvc0g1Tlh3VnFldEVLV01oUE9MenRBaXFMU2RVZUYyQnRNNFY3Z3k0Y1hVQXpIdmpPRjV4bGoKMWtTU21QeENkelowZmZsMGdRSURBUUFCCi0tLS0tRU5EIFBVQkxJQyBLRVktLS0tLQo='
p4
sS'voted'
p5
I0
ss.(dp0
S'i9jHGPCBJP4D+7QZEciRNoHe0+K0QoYmGWko/4Eif2M='
p1
(dp2
S'pkey'
p3
S'LS0tLS1CRUdJTiBQVUJMSUMgS0VZLS0tLS0KTUlHZk1BMEdDU3FHU0liM0RRRUJBUVVBQTRHTkFEQ0JpUUtCZ1FDM1ZlRHJENnd5NWFmaTBEcXplekxtV0psZQpCNEI4c3IwVEFLL1ZoSkplUGwxcVBMcFdscWdOWGJsdUlDNFdTVHBvMkRxb3NBR0tNTUdPTWl3TGdteEkzbXloCkppSEVWUS9sVFl3N1hZU2dHUkJJRWNDTko3YTVhaVlyZW15N3VuMElra1ZRWHZCSzVNS3lwdXk4S1NsVSs5U2MKYjluQ0oydDlzZ2gxd3k2T3F3SURBUUFCCi0tLS0tRU5EIFBVQkxJQyBLRVktLS0tLQo='
p4
sS'voted'
p5
I0
ss.(dp0
S'OKT0zoJygGceHYfNIvvwn1YUtongaJX+OCuE0EoGJPw='
p1
(dp2
S'pkey'
p3
S'LS0tLS1CRUdJTiBQVUJMSUMgS0VZLS0tLS0KTUlHZk1BMEdDU3FHU0liM0RRRUJBUVVBQTRHTkFEQ0JpUUtCZ1FDWmxyL3BFdEtSYmpxSVg0aWt5TzF0eTVLagpRSks5SnRqbzVwL3EyWi9LR2RRcEpDM1VzOVVJQXVlVmVGaW9TMDdQZmVPM2NHZmU3azl4OEtabmZFZEJmS081CjRUN2gzOEs3L1MxVDlhaG15a2M1aUtGQ0loL0xHWXoxV1RHT3Fkd1duUGI0VjJWaDRGMFYzQkYvTko0MUpoc1kKK2krVTRobnEyYkpMbTVWNVhRSURBUUFCCi0tLS0tRU5EIFBVQkxJQyBLRVktLS0tLQo='
p4
sS'voted'
p5
I0
ss.(dp0
S'+qcULIP7eBmues5mSKyhyzUK3jwWxDjmY+5uFiO3tJA='
p1
(dp2
S'pkey'
p3
S'LS0tLS1CRUdJTiBQVUJMSUMgS0VZLS0tLS0KTUlHZk1BMEdDU3FHU0liM0RRRUJBUVVBQTRHTkFEQ0JpUUtCZ1FERHBCN2paQWJuMUpkYUQwcVovSnd4OGtZRAo1QzVRMVlUalViOHZ6Y1E5SVdTQm9YZkxwUlVCbzVsM3VaVGo0VmhXOGtlR0dyb2hVWXd4aGRrcVUyVnBiN2xDCjJuWFZCb1Evem5CYlhOaWFXZ3R1NlNQaEh4RFlvWUVWaEtxUFgvYjVXdUNlSFRDRHgzTzBGS01sV2NSZjVDZ1kKd25UN3hIbWFEWW0wUml6YXZ3SURBUUFCCi0tLS0tRU5EIFBVQkxJQyBLRVktLS0tLQo='
p4
sS'voted'
p5
I0
ss.(dp0
S'WSHEu3iJmNS8qEotLkrbe12WUsjPR+cHauO11yXz0c0='
p1
(dp2
S'pkey'
p3
S'LS0tLS1CRUdJTiBQVUJMSUMgS0VZLS0tLS0KTUlHZk1BMEdDU3FHU0liM0RRRUJBUVVBQTRHTkFEQ0JpUUtCZ1FERUsrLzhsazNPTjFzRkw3WlcrUUlQRWJBZAp2UFNkNmU1aU9QcktlcDc1MW9xa2g5THBCWG0xK2RrUDlSK2NWWVBZVmw2b1QyeCt2SElHTFJJZjJtRnNlRkhaCng4Z0VscG1GNi9PdmU1OGRDRmx2cW91aXluQnhyMDJ3SU5zZnRvNnFJbEVLSVk4L1JaajhHWWR6L1VST0lyR3IKV0FhSmJUeEhxbW45TEl6R0hRSURBUUFCCi0tLS0tRU5EIFBVQkxJQyBLRVktLS0tLQo='
p4
sS'voted'
p5
I0
ss.(dp0
S'zz++BSZei0EOVcxc2h41H1Opqex5LMVbGNcRhcZiLrY='
p1
(dp2
S'pkey'
p3
S'LS0tLS1CRUdJTiBQVUJMSUMgS0VZLS0tLS0KTUlHZk1BMEdDU3FHU0liM0RRRUJBUVVBQTRHTkFEQ0JpUUtCZ1FEM3BDYTR0TlpBKyt5ODdscld4cEF5aVRkTApsMHNhWWlLYTZGbzRPM0dsSHFUeENaVU9kSERXZGhMWkxqUlVyL0tKOGpoZEhuRk53VHJGUWVvYmFELytCbHYrCkZ6emRPVGR1K2ZUTTFMS1k3VThvYm9wVGdKdDlQWU1KSWVKM1JQVjQzMjh5M0dUNFhEcnhjbXk4YUNZUmlwSm0KcG5xb0RPODhHM0xqMDBuSTBRSURBUUFCCi0tLS0tRU5EIFBVQkxJQyBLRVktLS0tLQo='
p4
sS'voted'
p5
I0
ss.(dp0
S'fvQgmi3Rxwljv6EFdXEOsvzlFRn/mETEAuDSeLyA160='
p1
(dp2
S'pkey'
p3
S'LS0tLS1CRUdJTiBQVUJMSUMgS0VZLS0tLS0KTUlHZk1BMEdDU3FHU0liM0RRRUJBUVVBQTRHTkFEQ0JpUUtCZ1FDdFVTQVBxV1I4Mi8wMGNvVGwrL2JXdHpzMgpJWTdSRkNzaFBEbUsyUlRMTlh4N2lobDdZRFRPRkg4a1M4TEQ5VEVhVDFMRTBrNTIzNjliVzhLTy90cHdXTXpOClVpNnJ0c3RodjVhTmJINmU1aUozcHNTenROSTJHNW9kWVloemROWVFBQkpFSTJPc2NJc1ZHK0VvdlN0QVp3NUsKS3prSmpWS202ODlEL1V3cnpRSURBUUFCCi0tLS0tRU5EIFBVQkxJQyBLRVktLS0tLQo='
p4
sS'voted'
p5
I0
ss.(dp0
S'M5kPNM2T4NijFTxjtq6pKuvZTb8CeB5WJUvLF6LNIRQ='
p1
(dp2
S'pkey'
p3
S'LS0tLS1CRUdJTiBQVUJMSUMgS0VZLS0tLS0KTUlHZk1BMEdDU3FHU0liM0RRRUJBUVVBQTRHTkFEQ0JpUUtCZ1FEdzlVSDNMSG1vcWhJd1d6QlR0WkEybnFhagpoQ0RJUnZ2dEowaHZwcFNFNjVZdEN4OHU3OGp6ZGYrN2lYaDdXRXZYUkJ2VERtN0lyUm5JbkFHT1NTWEY0Qm4xCmRMUmhISWJ5SG1WL0Jza3l4S0xMMmZXK2JVaFRWd0NLc1pqL05zNk1sVkRSZ2pObmtGaVcxL1ZkT0hnTnA2RkwKSEEwQlhvVVg4RXZzcUNNUkV3SURBUUFCCi0tLS0tRU5EIFBVQkxJQyBLRVktLS0tLQo='
p4
sS'voted'
p5
I0
ss.(dp0
S'O1gWS+DL1ixQ0SprUw56E57UkP3/7XVAnxXA6IW54l0='
p1
(dp2
S'pkey'
p3
S'LS0tLS1CRUdJTiBQVUJMSUMgS0VZLS0tLS0KTUlHZk1BMEdDU3FHU0liM0RRRUJBUVVBQTRHTkFEQ0JpUUtCZ1FEREhsanpoUXVZTU1IL09MYXR0SkN2a1c4NwoxdGx3UUdWK01VWGNzUXRNMDZBUm9LMmR4Y3hTMVJ2bnA0RkRWd3hYMUpzdy9CaXFPVDFrWVM4aVh4Y05FUG5LCmNhWUh6dmFuZFlSTDBYLzBndi85ZktsWUFTQVhsd2krK3N2YVR4SU8rbWh2SExGd0FlYmp1V2gvb1RhQWI1azkKS3MvMHZHQ1Z2NUhDVmdsNml3SURBUUFCCi0tLS0tRU5EIFBVQkxJQyBLRVktLS0tLQo='
p4
sS'voted'
p5
I0
ss.(dp0
S'kb2Gs92plbBglJYcZJVNLMs1hjnrLShWh8AdPMaIVsc='
p1
(dp2
S'pkey'
p3
S'LS0tLS1CRUdJTiBQVUJMSUMgS0VZLS0tLS0KTUlHZk1BMEdDU3FHU0liM0RRRUJBUVVBQTRHTkFEQ0JpUUtCZ1FDMDVHemtWUEJISUdudzdLT2x1ZDhyaGI5UQp2S3BYREovWlJzRGNoMTdTTmJrL1BNRlpOUFRYemVPRzNLNXZyZWhFdWNjVVBWNUhGVHp4RzZHZUpjWndidGl2Ck9VNVF1aWJDWHRxdFdRUHpZMEhXVExxVEhYY3FkZVlMVUwrZEc4VElNaHQ2ZmdtTUVocVJZRFQwdEFjdWRpNk0KdWt4UHVTWDlUdDdzWnJJMHJRSURBUUFCCi0tLS0tRU5EIFBVQkxJQyBLRVktLS0tLQo='
p4
sS'voted'
p5
I0
ss.(dp0
S'MK3MQDwzhuf4b1jmPCKejmMAAUQ3koucnmw0jFbMjXk='
p1
(dp2
S'pkey'
p3
S'LS0tLS1CRUdJTiBQVUJMSUMgS0VZLS0tLS0KTUlHZk1BMEdDU3FHU0liM0RRRUJBUVVBQTRHTkFEQ0JpUUtCZ1FDMWZkT0llY0dUL25pWDdBdVRtNTd3aW9MNgpDT2RSTXVrMlBvV21VY3NIV3c3OFRaZjdLYkNiSE1yb0FBdXBpRFowOTIzYlFQRWFyNm1XRVZYbWw0TXNXTklqCnpIOFdYMW5pVUhab1FFcUhKNFFvem9iamEyc3RqMkVwcmRjYWFqOUdQd3o1dGZkRkhTMGxqeDBlSnJKV3J1VlUKeVZ2ZDZXM3Z1OXZROFhDai9RSURBUUFCCi0tLS0tRU5EIFBVQkxJQyBLRVktLS0tLQo='
p4
sS'voted'
p5
I0
ss.(dp0
S'F1vrXn39aaEfHmtfW9XW6D2vESUrjAKI0Y3u4qD7ioQ='
p1
(dp2
S'pkey'
p3
S'LS0tLS1CRUdJTiBQVUJMSUMgS0VZLS0tLS0KTUlHZk1BMEdDU3FHU0liM0RRRUJBUVVBQTRHTkFEQ0JpUUtCZ1FEVmFOZFpvYTl6TVZQQktHbFM5TFFQN0NkbQppeDBoWms0Q1BHTzRoU05WNU9lZTVHbU81cnZ5VzExYTlhZ05keGU1blE3eVNQM2hhb1I1bm93YjZic0Z0aUhHCkZsNHFRZVIxQk1VYitTZlhuRnNNZjVKMFJ4VExHYnduNEFTdm5uMXZIbkZCWG40M2R4Qk4ycEZWL0dHQU9HU1QKVmp1djhjT0xWcGVJcWcvRTFRSURBUUFCCi0tLS0tRU5EIFBVQkxJQyBLRVktLS0tLQo='
p4
sS'voted'
p5
I0
ss.(dp0
S'UkgpV9ZLZPAYaLX4qrcLds/bl8zfNkHbsHn6irFmecw='
p1
(dp2
S'pkey'
p3
S'LS0tLS1CRUdJTiBQVUJMSUMgS0VZLS0tLS0KTUlHZk1BMEdDU3FHU0liM0RRRUJBUVVBQTRHTkFEQ0JpUUtCZ1FER0hHQzl1U0x0anh1bUpqZWRhbmlOWmZmegpobmJtOXFmdlZoTkRwR2hpdHdwb1BpOThVTlNOQ2IzK3pnazh1NGV6OURyTkVPQlN3bDBzMmJEbnMxdHl5TVdMCk54YWFmTTNtWkwxa3o4RWVaNmdaWFZYQWxzMzd3OGFsODhDUUFDMUloOG9rdkF0ZHdpa1Y1aGQvYXQrK0ExeEcKVEJrNHUzTldHOTBBL3NhTTBRSURBUUFCCi0tLS0tRU5EIFBVQkxJQyBLRVktLS0tLQo='
p4
sS'voted'
p5
I0
ss.(dp0
S'lPMYq/YAqSQTFzK7bQdSeVWhJg5xMoW+lov+TclwhXk='
p1
(dp2
S'pkey'
p3
S'LS0tLS1CRUdJTiBQVUJMSUMgS0VZLS0tLS0KTUlHZk1BMEdDU3FHU0liM0RRRUJBUVVBQTRHTkFEQ0JpUUtCZ1FEcDh1MHpTZ1lrNmIvSzU0cVJEcSswakNCWgpTWWVGUmhIdk0yMFlMWXpMdDhLWlQyS2JZTFMwQjBnUi9BZ3Y3cFpiSWVMVjg0UDFEeVplTW1ReUZ1M3BERCtLCnRSRW1NaUxmem5DbjRSalZKK2YrWlNpRUk5Q2l4THl2N2R6bUJpam1pLyttR3FKYjdNc20xZGhuMnl0elRRNTQKSFducGhpRExRSVpqWDRjNjBRSURBUUFCCi0tLS0tRU5EIFBVQkxJQyBLRVktLS0tLQo='
p4
sS'voted'
p5
I0
ss.(dp0
S'VyODIbko53rs5aSBvEQuMOmQQBWs5pA9WOXxuxGAXnA='
p1
(dp2
S'pkey'
p3
S'LS0tLS1CRUdJTiBQVUJMSUMgS0VZLS0tLS0KTUlHZk1BMEdDU3FHU0liM0RRRUJBUVVBQTRHTkFEQ0JpUUtCZ1FDL1owUW9Hc2M4QlZseG5OSG9DRkhDOW9MbAppRFZhUE80MlZpZ0VOQUtPdHd5UWkzcm52c1M1SWFZQUdWNzRwS0laQ293TXZyUm9BYkJ6UHcvNFZmODRHelRDCkp6bHczcGQvZE9aU3U2R2g0NTh0c1lnR1FKOVB1YXQvQm5PYjgvWkgxdjQzcU43RmdoeC9nSlNnNjc1WG4xdTUKQ3liU3NjMzJwSDE1WWgvRU9RSURBUUFCCi0tLS0tRU5EIFBVQkxJQyBLRVktLS0tLQo='
p4
sS'voted'
p5
I0
ss.(dp0
S'W730Qx07q77vUJ/+Ox5lvEATDN0VaqJ6E3vpYoy3H0s='
p1
(dp2
S'pkey'
p3
S'LS0tLS1CRUdJTiBQVUJMSUMgS0VZLS0tLS0KTUlHZk1BMEdDU3FHU0liM0RRRUJBUVVBQTRHTkFEQ0JpUUtCZ1FDN1d1QXRzTkFlUFhHVG45V0gvR1h4cDR1aApWWTdTQ01HWTB6UElwRlI5VE1maFF6cHhkTStxNys4RjViSENuQjZYTmgrOTFQOUswYlVadi9KUERQQ2VvNUF6CnlITUtBYUduU2pmT1VPc0VUTDFTQnVlREI0M1B2dnhJNitGTkdnOU9Sa0xnOGo0VllEZXJselZMZ3JIejdZQnAKUm1Da3Q5LzdyeXZlL01aTVBRSURBUUFCCi0tLS0tRU5EIFBVQkxJQyBLRVktLS0tLQo='
p4
sS'voted'
p5
I0
ss.(dp0
S'UxHXpssR0CBiRl9Uqe6mYPPPEJFJjb55nccfi1jWKcE='
p1
(dp2
S'pkey'
p3
S'LS0tLS1CRUdJTiBQVUJMSUMgS0VZLS0tLS0KTUlHZk1BMEdDU3FHU0liM0RRRUJBUVVBQTRHTkFEQ0JpUUtCZ1FEQjhUQ3lLemQreUdGS0NWQm5jdGRnMHV5aQozNUl2dGhLdnRrUVRBMW9heS84YUxtT0xLcUFjd1k1N0JkUGtveUpUWWdFNkNRR3JXWjEzQit5RGtiZCtQdWdECmxKRWtKUXp4NHA0dlN6NzVHRU0yWm40YjdkMk56OGcxZEJaTER0WTZsSjdnbFQvZkU2NHo3bEwwbllpaU1ySTEKclh5U1dvSTNjTTNMQVpMR0dRSURBUUFCCi0tLS0tRU5EIFBVQkxJQyBLRVktLS0tLQo='
p4
sS'voted'
p5
I0
ss.(dp0
S'3BGXpYc03e0A+P0Z0npLCzgJJOrvsA7iwqFf8tisRHI='
p1
(dp2
S'pkey'
p3
S'LS0tLS1CRUdJTiBQVUJMSUMgS0VZLS0tLS0KTUlHZk1BMEdDU3FHU0liM0RRRUJBUVVBQTRHTkFEQ0JpUUtCZ1FDZWtUY0dWaHRJemdxVXQ3SU1RR0FxZ3JPeQo3RjZyUVdhdDZnc1gvV1V0d2JWMk4vVlFQbFZXV0k2QTU5SkJ3Z3A2YXdyd1BqVTRINnBvZVJZclJ5WGs2RWk0Cnpsc215OVh1SjdtNit5VmFCWWRkR0RZZEZsMG1VZURwS1ZpQTQrc1NCdTFXYzVJTDdyc0h3WjFDbFFXQ3RMVDkKZWF0bHNwL2NjbkNCWmFDNkpRSURBUUFCCi0tLS0tRU5EIFBVQkxJQyBLRVktLS0tLQo='
p4
sS'voted'
p5
I0
ss.(dp0
S'a8EigNMe4/b0wO92REozMDbYIbmkbLJfGv5aTyBQzmg='
p1
(dp2
S'pkey'
p3
S'LS0tLS1CRUdJTiBQVUJMSUMgS0VZLS0tLS0KTUlHZk1BMEdDU3FHU0liM0RRRUJBUVVBQTRHTkFEQ0JpUUtCZ1FDM1ZyT1Jwa04wL3VnYWMyM1FEQmNOeHREYgpXY3FGb0swNWhlRWgzSFd5Mm9pT1FDdjB4M0VLTXJ4NXVndSt2bkV4SkhwOGp1cC9pQnpQM0U3MDlVNW5OQ1FNCjMrSXUrNjVrUHpHTU9ZcmtzUFVIbkhEM29mZDh4YUxlcGEvRENhNDB3dmhoSjJvbUNpeUdNQkZucmh3QU5DcS8KdnB2bUhWRFpqMzUwVjVzYWZ3SURBUUFCCi0tLS0tRU5EIFBVQkxJQyBLRVktLS0tLQo='
p4
sS'voted'
p5
I0
ss.(dp0
S'k+elLAyIduNDN1DhPMnnQkTloLve26erVMV0A84qej8='
p1
(dp2
S'pkey'
p3
S'LS0tLS1CRUdJTiBQVUJMSUMgS0VZLS0tLS0KTUlHZk1BMEdDU3FHU0liM0RRRUJBUVVBQTRHTkFEQ0JpUUtCZ1FDOS81RHNTOFh5K1phMDZyK2d4UllhWE9VawpXL0N2TzJZTkxRYjFvcmxWT09aL2prcUUwaENzeDZrYUtjT1h4S2hRNzVQTVlLaEhGbmxGVC9Ubmw3Q2ZxSmVEClpLZDBKbE9NYlFYMTBlN3VSV2I0ZGRZMndidWJwYkhaRUlCTXRYUC9TVmZLQk8xTnBjc0hNME85MGZ0UXp5OGUKZ1VyOFRYaE1OeFM1Z1JaUFhRSURBUUFCCi0tLS0tRU5EIFBVQkxJQyBLRVktLS0tLQo='
p4
sS'voted'
p5
I0
ss.(dp0
S'7ZRNdAmfjNVW0r8KS8ZaIP2vZAw0oFBGmu5ySw87Du8='
p1
(dp2
S'pkey'
p3
S'LS0tLS1CRUdJTiBQVUJMSUMgS0VZLS0tLS0KTUlHZk1BMEdDU3FHU0liM0RRRUJBUVVBQTRHTkFEQ0JpUUtCZ1FESGN0ZnhFMVdZZTl5bEtGT1hiVngvTW9XSgp3WVRaMy9YN2dTZmpPTms1MkQ1eDY1MmhMQ2I4R3lqY1ZWdmRpYk9OWGl5d3JPZjdXaDdkbkZFeXRvNWdnVW9kClFWQ0FuazMxSVBmeEpXZi8yeWVHVHJQckVSQTA3aDVOMzkxbWlJWkZ5aDNIMG1DZDQxdU1SZXlPVzJBdFZQWGYKMGxBM2Nmc1N5N3g1eEtPTHN3SURBUUFCCi0tLS0tRU5EIFBVQkxJQyBLRVktLS0tLQo='
p4
sS'voted'
p5
I0
ss.(dp0
S'cRqYa1+Nu/7H1/kC+F6AbeflYCkSjtz7RudWwJpHvos='
p1
(dp2
S'pkey'
p3
S'LS0tLS1CRUdJTiBQVUJMSUMgS0VZLS0tLS0KTUlHZk1BMEdDU3FHU0liM0RRRUJBUVVBQTRHTkFEQ0JpUUtCZ1FEWlRLbDR0MVlFWFN3MnJDRlVRWUswOEVFZwp4U1picGw2d0xqWS9OVGVlbkR5bUVvVTh2aTRsQ3NUOVQwRGNyd05kOVl6cXpNV2V6WkNJODREMzd4MFBFL2dBCkN3K2EzZS9OZ2REZ1N4bFFnbVFiVnorWjdtM2dZSWtuN0w2NGc3SEFVWVFabXJKYlhQd2VLQ1luWnRTbWdHM3AKSS9lWnVGN2NuT0wramxSUDF3SURBUUFCCi0tLS0tRU5EIFBVQkxJQyBLRVktLS0tLQo='
p4
sS'voted'
p5
I0
ss.(dp0
S'kjFQrgGvd9gip0pudOmd0nmQ9qi1RaeiPbNP2uZi2eM='
p1
(dp2
S'pkey'
p3
S'LS0tLS1CRUdJTiBQVUJMSUMgS0VZLS0tLS0KTUlHZk1BMEdDU3FHU0liM0RRRUJBUVVBQTRHTkFEQ0JpUUtCZ1FEQkRtNTZEalBsd2Y1VlVSU2g4ZzBpVmc5egpQNU96enBQQlFSL0ovNE9ucW93OFRoaVN4M3hBMGF2elFKSmxiZ3lZYWZuRk9VS2VxYUdhbFRLalVZSFVsZG9VClJHa3I0eW5JSS82TVBLUkJHcTJPV3NyaTM3ZWVkd0kzYnJQTmtHTDF4R1RBTnc5T3luK3Fac2xlOWx0UWJSc2MKc25Vd3A4eTNpaUV4Q3AzNjJRSURBUUFCCi0tLS0tRU5EIFBVQkxJQyBLRVktLS0tLQo='
p4
sS'voted'
p5
I0
ss.(dp0
S'utE9QYHCsnB5jP7Ut1Unm90PXbVXL8wXnWYAja/LnUk='
p1
(dp2
S'pkey'
p3
S'LS0tLS1CRUdJTiBQVUJMSUMgS0VZLS0tLS0KTUlHZk1BMEdDU3FHU0liM0RRRUJBUVVBQTRHTkFEQ0JpUUtCZ1FDbmIvMmhtc2xXeUNDMlROZW5GZVVsL1pyKwpRb29US1EwUThqWTIyc1J1SVBjdUtGVGNHSmkycngyRE9PQ0pXbmROUU5EUkQ3aTd0Q0xWVGhOM0VSdVJhZTU5CjF6Rk1pSU1xUmFTbkFDN1JHK1lFNE9jMGlrMnFCVUNEV1RUN3J2RkprLzc5bnJycE01QjkycXc4b0hEY3IwQkgKMkEzN05jOHdUT0phN0puYkNRSURBUUFCCi0tLS0tRU5EIFBVQkxJQyBLRVktLS0tLQo='
p4
sS'voted'
p5
I0
ss.(dp0
S'l5LrSAWCji1V1AwCyGGaGk7GIbKnBsWXS5ZxTM8legA='
p1
(dp2
S'pkey'
p3
S'LS0tLS1CRUdJTiBQVUJMSUMgS0VZLS0tLS0KTUlHZk1BMEdDU3FHU0liM0RRRUJBUVVBQTRHTkFEQ0JpUUtCZ1FDeU5GWk4rZkp4VUoxRjZYaWhTUU9PSlA4ZQpVM2p4Vzh4TDBTck9oVEdtb0d6RFQyZGtMZXJDUUFlelFKZmtBWWFxVkk4Y2xYUmdOUTJxa3RyK2pYcEtzQklBCk9KZk1DSmtPS3Izb1psVWV2UEpSVFI3ejZhczlWRlU0WW9zbUxLaWtvNEIzSUc5NlFHK0lEL0xzTlVNWXYvN1QKcDIyUTlFMyt3Z3g4dm9kdGNRSURBUUFCCi0tLS0tRU5EIFBVQkxJQyBLRVktLS0tLQo='
p4
sS'voted'
p5
I0
ss.(dp0
S'bbQYrUuB+acyFS2NCIThZDGT4MBi1nuDnjb/sUWgG/c='
p1
(dp2
S'pkey'
p3
S'LS0tLS1CRUdJTiBQVUJMSUMgS0VZLS0tLS0KTUlHZk1BMEdDU3FHU0liM0RRRUJBUVVBQTRHTkFEQ0JpUUtCZ1FDd042NWJ0MEFNbTFlUHFVSTlJVXhRMUg4Qwo3SmM4clVraEc4NUI4T205SFFiQURtc21jZS9sNVNGbno1UGtRN2ozb281ZE9HSUhnZU5Bdkd1QzJRSVJOYTArCjV2WEZZVEswMnVxSWNMeERtVTVrZnBHdDErbzlMRFJWMWQ2NE9RY2Zqam90ZFRhcy8zeWgvVnlzM1hvQmdlRGUKOTdKQUk5SUVobGdZSkFvRkNRSURBUUFCCi0tLS0tRU5EIFBVQkxJQyBLRVktLS0tLQo='
p4
sS'voted'
p5
I0
ss.(dp0
S'2uT73uCG4VKM8rFdQv45pYeRuVtkOSqT5wnXyB/CjsI='
p1
(dp2
S'pkey'
p3
S'LS0tLS1CRUdJTiBQVUJMSUMgS0VZLS0tLS0KTUlHZk1BMEdDU3FHU0liM0RRRUJBUVVBQTRHTkFEQ0JpUUtCZ1FEa1VzcWUwM3VabmJTSWZCeHNHVnFlczlCMgorTzkzV1hkWFJ0cmJRZTRSd0V0WFFoQlgxUFY2NTUyY0xKeS9kWWRmM3dtKzZXSnByR2hvVCs2WEsvWUxSODRjCm5PbWEwZ3pvRWdEalZKOHJBTmFjVVVraFJ4Y2wwK3lNR2kvN2Y1T0Nwa1FxbFBja0FBM2xGaDNhQ1dGNmluaWgKdjVMc3d1Ymd3Nk15R0k1Z253SURBUUFCCi0tLS0tRU5EIFBVQkxJQyBLRVktLS0tLQo='
p4
sS'voted'
p5
I0
ss.(dp0
S'ytSLxi9LptBMfLVfc8j5+C59mhKG4TeSGlrwISoBx5Y='
p1
(dp2
S'pkey'
p3
S'LS0tLS1CRUdJTiBQVUJMSUMgS0VZLS0tLS0KTUlHZk1BMEdDU3FHU0liM0RRRUJBUVVBQTRHTkFEQ0JpUUtCZ1FDWkg4WE9QMnM3MEh6cWVFQnU3Mkxvbjhocwp4aHNUWDVUbzY0cXhRbnNDZ1ZTTFFwYWV6cjB5ajhhNWhuWTVqSm9sd015bGZaZUhOTnV2VVZLQlkvM0NVanVoCndVM0RZdGY3VFNKaGcyUG9LbDUzNVlsdDlkeGtMbmVhbHdHSUtOMWxpTFRHcGVJeWo4a2VFQWJwK0tvQUVjUVcKVWszN01FZ1F3eHgrSjRIR1B3SURBUUFCCi0tLS0tRU5EIFBVQkxJQyBLRVktLS0tLQo='
p4
sS'voted'
p5
I0
ss.(dp0
S'CFzRhVTAy/qyENpvpo0RutSAXUoF9OKMqNZEzFVrHsE='
p1
(dp2
S'pkey'
p3
S'LS0tLS1CRUdJTiBQVUJMSUMgS0VZLS0tLS0KTUlHZk1BMEdDU3FHU0liM0RRRUJBUVVBQTRHTkFEQ0JpUUtCZ1FEUE91T1RKMWIxTXliRWxJV3dSQ1JRNURwaQpaT2t2UmxTcE1KTkpwRFhuUFdRWURBSU1LUXZ3MjJZYWprMVV1RCtGK0VieUR6N09pK1FOOGplS0Ivc2c3c0dnClJuUmcxalNWejZwSDc1VFAwbDBkT0ZxekhtbmFWZ2lpcUh5ODJHMW4ybE5JN2hvRWlUYXFCZnQ0ZVRWTW5xbmwKYldrOW00SVBRZmM4eUxXV3F3SURBUUFCCi0tLS0tRU5EIFBVQkxJQyBLRVktLS0tLQo='
p4
sS'voted'
p5
I0
ss.(dp0
S'l433RbAKDG+eJexuEUceWud82Gbto7fzcjBDH75EWho='
p1
(dp2
S'pkey'
p3
S'LS0tLS1CRUdJTiBQVUJMSUMgS0VZLS0tLS0KTUlHZk1BMEdDU3FHU0liM0RRRUJBUVVBQTRHTkFEQ0JpUUtCZ1FET0k2cUNYQWpjTVhaajlyS3RJbXZhM2JORApiWk5zV1g5Nk1aaGJBN0JXMm4zTHVuU2xQRmozVnp0TjczaEg5NytKYTI0cEJ2bk43c2JIOWFoK21FVG9manI5CnVvdmY1NnRNWm1PNDY0WktjNDgzN3pDUTZQY3hkVW5hYSs4Z05hWUtETVU2SVFZbElhMjJRams5VTdWTGxjNWUKejVjZUxsYjhEbnltcms0cURRSURBUUFCCi0tLS0tRU5EIFBVQkxJQyBLRVktLS0tLQo='
p4
sS'voted'
p5
I0
ss.(dp0
S'3qVxkNa8fo6DYaQ34U6gAMBCHsqQRR4p+Oq5fVQmJBA='
p1
(dp2
S'pkey'
p3
S'LS0tLS1CRUdJTiBQVUJMSUMgS0VZLS0tLS0KTUlHZk1BMEdDU3FHU0liM0RRRUJBUVVBQTRHTkFEQ0JpUUtCZ1FERlFjOHU2NXVwYmIza1AzT1BZK2FOeFNUaAo4ZlEzWnF4ZzdzcVVXdlVOaHFzcG4zZ0ZaUmRxaktLME95dWxiaHl5TWtmSFpOazdzYjNRZXJHSHkzMGttRUFOCkZQMUp1L3doa2hjUDFjVXNwZWdRTGFjUHcvWU4zNGR1QkNDUk1heG1NZDFHK1lJeTFSbWRkVFdYY2I4WWJXRksKekFYeHZYc1UwUHFnaVNBTklRSURBUUFCCi0tLS0tRU5EIFBVQkxJQyBLRVktLS0tLQo='
p4
sS'voted'
p5
I0
ss.(dp0
S'pg2tLFDf/zXeJXgUvPCCGRwBX+d+ddNn4Q1NCpAbE4g='
p1
(dp2
S'pkey'
p3
S'LS0tLS1CRUdJTiBQVUJMSUMgS0VZLS0tLS0KTUlHZk1BMEdDU3FHU0liM0RRRUJBUVVBQTRHTkFEQ0JpUUtCZ1FEWncxT0tWRkJ0R0RxRkxUZDFFOTlJVXZ1SgpYTUQ2ZW5EOGgwRzBVajIyZ0VyQ1lrZzhKWWxEcWpzWDZtbGpPR0pwRE9KS3Ewc2lwL0ZYaUo3dmxLeXp1ZzZtCkNkRFhrb0doQy9NazRLd3JWaHJoNWJxbDRwdFd1cXBNNERhRVVxQSsvWWVXUXNyRjdHL3BHbUgyV04xWnlUK2MKVUZYZ0xVU0psQ3AwY2JMcWJRSURBUUFCCi0tLS0tRU5EIFBVQkxJQyBLRVktLS0tLQo='
p4
sS'voted'
p5
I0
ss.(dp0
S'qsD0wqhiB5kLejoLlhqZEpTTATut8kV3PS/DyJRbwsA='
p1
(dp2
S'pkey'
p3
S'LS0tLS1CRUdJTiBQVUJMSUMgS0VZLS0tLS0KTUlHZk1BMEdDU3FHU0liM0RRRUJBUVVBQTRHTkFEQ0JpUUtCZ1FEd21xZ05oSmNIY3ZFSEVRSGJGcE1ubisxeQp4S05LKzJzMXdSTXlna2FaR2xFRU9nWmUzekxwdW1QdlFadHRaZFFobERQcFdKcGNBdEJCOXpUdVpmRklrRFpKCmxLQnQyc1RrNnU2cGJYRTdYZk5vaEw2OHVOSGh6RGFHOTlYS2lkVVpzZVdCamptdFJlZWpGVjR2SDQ0K1FIYlcKWGZDejcxeC85RXZ1SHhLamx3SURBUUFCCi0tLS0tRU5EIFBVQkxJQyBLRVktLS0tLQo='
p4
sS'voted'
p5
I0
ss.(dp0
S'Obgwhn6zDjjanXWa3oTqGE5D1jz/LUleGwfHqpRpJNA='
p1
(dp2
S'pkey'
p3
S'LS0tLS1CRUdJTiBQVUJMSUMgS0VZLS0tLS0KTUlHZk1BMEdDU3FHU0liM0RRRUJBUVVBQTRHTkFEQ0JpUUtCZ1FDNHlDaGUvbHNKNGY5b2t4czg1emcxQm5oeQowRDJ3cTB3TW1heXNrS01CVE4zQ2RnSjd3WXptTWhWN3lnWG9xOHdGU0lzUGxacWdqK3VRKzdMb2lrRG1pMkpHCmwvR081Nkl2dGltVEE5WFlUL2xMcDYrck9Yek5GVGQzeHk4QTVDR1orcWtPemRjTG5BazU1ek15KytXSVJCQ2MKQkVpTWQ2SnA2cUdWZlUxU0x3SURBUUFCCi0tLS0tRU5EIFBVQkxJQyBLRVktLS0tLQo='
p4
sS'voted'
p5
I0
ss.(dp0
S'pRHpGn1H1RxLUE+g315i487l9rDL+wC2FEWwxtay70k='
p1
(dp2
S'pkey'
p3
S'LS0tLS1CRUdJTiBQVUJMSUMgS0VZLS0tLS0KTUlHZk1BMEdDU3FHU0liM0RRRUJBUVVBQTRHTkFEQ0JpUUtCZ1FDZmg2ZXptWFdINHl5bjhySjVwWmQwR0wwTgpkdURsb283aVlaWCs5V3dXc2Qvc2p2dDhnelFTWnRuMmp4dW81Sm1oOTh2Z1I5bXd3UmcxL2c1Ym9UOFpGZFZOCk1idnRvMHU2dmlXSmtuRm1QbGlXMFhYRjNuYWtWU1J1aEw1M283TTdqRWtGQmFMRWRIUWpwL2hjeWI2bnhrNXcKVkk2UjFJVXZlQWNnZjhrRWhRSURBUUFCCi0tLS0tRU5EIFBVQkxJQyBLRVktLS0tLQo='
p4
sS'voted'
p5
I0
ss.(dp0
S'WgKpJPp6hn9s/uKqSeiwkWZZ0eplXe+uSmbR8AEMs1M='
p1
(dp2
S'pkey'
p3
S'LS0tLS1CRUdJTiBQVUJMSUMgS0VZLS0tLS0KTUlHZk1BMEdDU3FHU0liM0RRRUJBUVVBQTRHTkFEQ0JpUUtCZ1FEdThhY0dqc2pBdWNQZWxpVVpYQkRpQmthNgp1RDN2bklGZUg0alBCaXQzVUtNS0dnWmpSSnlDdGxLc0lZNlNkTlZEQjJhU0NiT2JESHBPdVErak81YmhoZ3V5CnZZUXJjVWFGK285TldKZHVnUjZHWnlBTlRqeXVaWVZteDNaVGdROHBRaFErVVZkUFppRzdVelcyVjQ3S3NPOHUKYi9RczBkWXhJeEtjcTdDYVl3SURBUUFCCi0tLS0tRU5EIFBVQkxJQyBLRVktLS0tLQo='
p4
sS'voted'
p5
I0
ss.(dp0
S'xexX32yctPe7JR3hAXkIKXHDRsbJEAi9SF1Lm6Ay5q4='
p1
(dp2
S'pkey'
p3
S'LS0tLS1CRUdJTiBQVUJMSUMgS0VZLS0tLS0KTUlHZk1BMEdDU3FHU0liM0RRRUJBUVVBQTRHTkFEQ0JpUUtCZ1FDK2tQdnpxMWptSW9xTU5VWkxQZVBHYXI3TQphMkhMQmZrdngwK0FTaHEzU0Zac1FIUHRRS3FyK3VoMjM3bXhIaTVjdWFYODJVRU41UkEwQm9MZmozWm5yb1RLCnJabTFrVHJhNmhDYncvN0xvM0FlNWlKYkdsZmNGOTh4RFNQdzR6WFRUMVJzdUNLSml3cTNhcm11Q29mdldPVUMKejg3UUFveWJDOXlWZTRuV1NRSURBUUFCCi0tLS0tRU5EIFBVQkxJQyBLRVktLS0tLQo='
p4
sS'voted'
p5
I0
ss.(dp0
S'aJki16b/ABeNamNYAoU1clEyy52N0yewLcXgbQw8goI='
p1
(dp2
S'pkey'
p3
S'LS0tLS1CRUdJTiBQVUJMSUMgS0VZLS0tLS0KTUlHZk1BMEdDU3FHU0liM0RRRUJBUVVBQTRHTkFEQ0JpUUtCZ1FDUmhtRjZtWUtDVVdKTk1JU2J6MUJhT3BnQQpwMXNDaFplM3l2bklLK1FBV2V6OGEzWVdkUG1XUW9zNUR3MGJaU3lHcS8yOEZoU2dya2VuWEZETzN1WFFDbGtRCmdRMFNrM1ZZUHhHcDhncDJ5ZHRPU2syMEgrSFZOMWRqZ2prdHJ1aExuUDhlSDRBenRGajY2akdkQ08wMzhUNTEKeVMvNXVqakJzYVJEQ1Q0TDBRSURBUUFCCi0tLS0tRU5EIFBVQkxJQyBLRVktLS0tLQo='
p4
sS'voted'
p5
I0
ss.(dp0
S'02htXSBqw86WQKaPB8lz8Xea/WKTJYRlRWCW7KLYuls='
p1
(dp2
S'pkey'
p3
S'LS0tLS1CRUdJTiBQVUJMSUMgS0VZLS0tLS0KTUlHZk1BMEdDU3FHU0liM0RRRUJBUVVBQTRHTkFEQ0JpUUtCZ1FDajFlanBOd3RrM25zTDFQL2dLd3Q1R3d4cwpXOWxneHkvYm1Way94OTVpa0lUaW02U2daSnhFc1BZRXF5Ukk2YnpacE00ZHBnaDFjVmxkMHhLdzkzN1kwTHFECjdodTFvS2krZVBHYTVSMHYxNDB2Wk1oejM5RVRkcldKaFRhY0NLVktkTXR1NDVIRjlSZDB1ZkVrYS9WMitrY2oKMmpIV3JoZmw1VW1TZjRvclV3SURBUUFCCi0tLS0tRU5EIFBVQkxJQyBLRVktLS0tLQo='
p4
sS'voted'
p5
I0
ss.(dp0
S'10aVzaqMcHEq+WxvKowCo2sYBmPSN7v0v5xuj9/n83E='
p1
(dp2
S'pkey'
p3
S'LS0tLS1CRUdJTiBQVUJMSUMgS0VZLS0tLS0KTUlHZk1BMEdDU3FHU0liM0RRRUJBUVVBQTRHTkFEQ0JpUUtCZ1FESWRNdDNyZW8vV0pZZ3BzaUVobUIyVXQxZwoyRGlLbzNqaUhNZmZyL1FBVFhXWVRaMkcvZXYxYjlaei9pRGdpYUIzZFhlL3JUOVRldWNZdTlRenVMTzRRTXBWCjNvS1lYVlM1S2I0blYzb2gwR0M2QmJQb0xGOXlVVHMwVzAzRXVXdzZ4MmFpeFBmOU1Xdkw3c0RmS1RmS3pDenEKSFhxbnFDd3Y3TWQ4WEFTU1FRSURBUUFCCi0tLS0tRU5EIFBVQkxJQyBLRVktLS0tLQo='
p4
sS'voted'
p5
I0
ss.(dp0
S'XSJpvdW01OV4WYesFkS8VGEjQKF01T5YZisBXcUb7OQ='
p1
(dp2
S'pkey'
p3
S'LS0tLS1CRUdJTiBQVUJMSUMgS0VZLS0tLS0KTUlHZk1BMEdDU3FHU0liM0RRRUJBUVVBQTRHTkFEQ0JpUUtCZ1FER1dFUXZiU1pEN3NyTjYwSDI2anBkZHV0QQpZR0orODhQWUdIVmVkV1RORjBULzlqLzU3NEsranFLUFB3bWR0TWMwdUI3eEtYZHppNkRQNTdFNzZ1OFlkTXZSCmhvVDJWV0N2dzFJV0ptMUNQSitlejJkL3F5WDFSTVVGd0pJU2lEU0crdG5LSTdtTEdheTlXNXpPdzBaVWhBMFgKUE9NZ3k3eWNxdVhHeFZFN3pRSURBUUFCCi0tLS0tRU5EIFBVQkxJQyBLRVktLS0tLQo='
p4
sS'voted'
p5
I0
ss.(dp0
S'yE5XtR8BKhvmq/mi2EfPNOM6bHzHr4kNBTZq9RvTyOk='
p1
(dp2
S'pkey'
p3
S'LS0tLS1CRUdJTiBQVUJMSUMgS0VZLS0tLS0KTUlHZk1BMEdDU3FHU0liM0RRRUJBUVVBQTRHTkFEQ0JpUUtCZ1FDbVFoQnJVL0d4NGhGREZIMFRoRVhHVEw4egpQYU9JNHNLUUtJY3JZLzl4VG5jK3NURUJWS3dKUU8vcFh4ZWUrMjd4VVV0cDUvQzI2RThyU08vamNoSGxHUEFCClV2YVR0elRidXljbWh6NVlMWXQxMVE5MUF4SnloM0g5Q3VsT1MxTXJrVzNRVC9OdVRCUElUeE4yMUNLQlRPc1AKRGltQVErbW9GOXNoc3p2emlRSURBUUFCCi0tLS0tRU5EIFBVQkxJQyBLRVktLS0tLQo='
p4
sS'voted'
p5
I0
ss.(dp0
S'29fTHuZkS6PiK6GVo/534+5ABODkxofUBi7g/1gpWlo='
p1
(dp2
S'pkey'
p3
S'LS0tLS1CRUdJTiBQVUJMSUMgS0VZLS0tLS0KTUlHZk1BMEdDU3FHU0liM0RRRUJBUVVBQTRHTkFEQ0JpUUtCZ1FEUTJSczREbHlRT0FVeUtEc3NlMU4rZ3pUbApETFpRNW5MMkNzSHB6eloyOXRZdmpONU9lT3dhMzJqbFFTTzhPczd5dzN2elYrUkxpR3E1aXJJQWwySEt4R2VBCmI3VkxKL3c4Qzk5aUViSzluWDFqbzdhVHZqZ0dQbHpKS0c2cllaakdlclYxenE0VDUwOHV3VG5Jb0g5ZHhCa0YKbUFubkx5dWtFZGFWWHF2QXBRSURBUUFCCi0tLS0tRU5EIFBVQkxJQyBLRVktLS0tLQo='
p4
sS'voted'
p5
I0
ss.(dp0
S'BpvqXBh37aBUX24+wC/5B0LQblJnJy4VslGUBpJc2Pk='
p1
(dp2
S'pkey'
p3
S'LS0tLS1CRUdJTiBQVUJMSUMgS0VZLS0tLS0KTUlHZk1BMEdDU3FHU0liM0RRRUJBUVVBQTRHTkFEQ0JpUUtCZ1FET0w0NFZZTVlQdHd3aCtmK3licG0wZ1NvLwpONUZESkxoYXh0QnhKYlVmNGcrRG1UdGZCUFRwRzVDOUtrbndtaWg5dVlsekZ3eW01RllGUHFNN2h5NEpCR21UCi9nMzlHZm1OTVhTbmtCdmZzVEFOQzN0Y1ZtaHBpV29HN2EycFpOQjkrWHZJem56Wm4rTFFEQVA3a0pPenZsd3MKeXl1dVloOE51WlgrY21JL1VRSURBUUFCCi0tLS0tRU5EIFBVQkxJQyBLRVktLS0tLQo='
p4
sS'voted'
p5
I0
ss.(dp0
S'Ejv7HKQ7aIAS0EqQNOy4+uet4kPGdAuUgA9wLjZbp9E='
p1
(dp2
S'pkey'
p3
S'LS0tLS1CRUdJTiBQVUJMSUMgS0VZLS0tLS0KTUlHZk1BMEdDU3FHU0liM0RRRUJBUVVBQTRHTkFEQ0JpUUtCZ1FETXVUQmg5MGdCUW5HNnJXdXoyanNidTYwOApWTlM2UGplZitycmVKTkZWa294QkpzSlR1MUlkL1Rmd3lnU0hOU0ZSYkQ0NHJCUm9ab29HOU5OVUNzSFR0QlJ0CjczQTFnTTFQUmN1STBUUkJXWDM0ckl4ekEyaGoxYmYyMzdmOG1Uc2llYVdQS2N5VVBBS0lPN1FJUmFsZFNxc24KVWVrYlNnRm9Wdmg0dnNMMTdRSURBUUFCCi0tLS0tRU5EIFBVQkxJQyBLRVktLS0tLQo='
p4
sS'voted'
p5
I0
ss.(dp0
S'sNK0n9SlQ2jx19b0OepAHY6eMNkgBNcqMFH9xFMwW0U='
p1
(dp2
S'pkey'
p3
S'LS0tLS1CRUdJTiBQVUJMSUMgS0VZLS0tLS0KTUlHZk1BMEdDU3FHU0liM0RRRUJBUVVBQTRHTkFEQ0JpUUtCZ1FEaUR5QWlDb3Iwck1kVXJhNUVDeFQzc1pBRgpZWEx1YksxOHBRbWROb0dnZ2ExTkU0VE5CWTFOQUp5ZktxY1I4ZXlvbmVkN0FjZEhzbWVWK2ZoaXpQN1U1d2FICnFTRUxIS0V5ZkxoODBBSm11aytFeXhHMERzRHl3ZkRMcmVSYjdBakY4NGxiSlB3SEhsbE1HR0xWeFlkVjZzUXQKazJ4dlFxb1BEa2NzQ29qOE9RSURBUUFCCi0tLS0tRU5EIFBVQkxJQyBLRVktLS0tLQo='
p4
sS'voted'
p5
I0
ss.(dp0
S'AqtONr4CFWehTlUSungA0aeLQtWS+/sYETophDxG+qw='
p1
(dp2
S'pkey'
p3
S'LS0tLS1CRUdJTiBQVUJMSUMgS0VZLS0tLS0KTUlHZk1BMEdDU3FHU0liM0RRRUJBUVVBQTRHTkFEQ0JpUUtCZ1FEQkZxS09kbXdSNFdxejZRTW03RTA2bmd5Qgp4OTU3NHo0MVNVbTFseDJzSzEweGVER2YxZm5IZlVVMTYvVFNzWXVOZ2VkbkJXNVR3TWxMU3NhVkpzN3NxNGRwCmtQMFpPbXZnbnlYNVVNcDZ1MVVzWmxsK1pYN2VzWWJ2SUx4bjFvOGVEMzB5OURkUFcxcHlwOU5VNWlEYm40NlkKK3kyUEJqZ2dNY085cUhtS1p3SURBUUFCCi0tLS0tRU5EIFBVQkxJQyBLRVktLS0tLQo='
p4
sS'voted'
p5
I0
ss.(dp0
S'vvCvMpA1sYbcTWexj6WVi1/aiSzHTeemmM8rwh6DDwk='
p1
(dp2
S'pkey'
p3
S'LS0tLS1CRUdJTiBQVUJMSUMgS0VZLS0tLS0KTUlHZk1BMEdDU3FHU0liM0RRRUJBUVVBQTRHTkFEQ0JpUUtCZ1FEWkpPOEg1ZmNWK0M5czN3Zi9HM2JDbXVwVgo1eDZ5VktRamFxVm1YUUcwQTFyZzRJUWlCdFV2YXRwdzNrMmduamZFemdJeW41bG5KSDZYZm5BamFadDNzTWNjCkdRbWNRczAxdERtQ01NcHlWeGM4WWpKQWtvTmVpMGgyTWhGRjNCcEpweVB1djhBTEhsYXVCWHZoT1QwR1lEY2QKaU1yOW81eWxPK1lnR3pxSEpRSURBUUFCCi0tLS0tRU5EIFBVQkxJQyBLRVktLS0tLQo='
p4
sS'voted'
p5
I0
ss.(dp0
S'TtX4LYOOFd33nGilXuQiyWOcZkGfufbgM7jGiZvGabI='
p1
(dp2
S'pkey'
p3
S'LS0tLS1CRUdJTiBQVUJMSUMgS0VZLS0tLS0KTUlHZk1BMEdDU3FHU0liM0RRRUJBUVVBQTRHTkFEQ0JpUUtCZ1FDOHlCVG9salVYZ2pPczhPUWljYkZhU3RVWApSM282aDFxMGdSWHFyMjJVQktlckc1ekYwMUpMYW1BbmdlendFbTAzMUVXSUdpdUpYemlydnBta2VvNmxTT0JWCmtpZGhjRjZXSjl2MUN0K041VDBnaDhQRTlGQmJkTzQ0Y09ldjUwOU85aXQvSXdNdER3RVdEREc5ZDZpZDRnQ3kKb1lzQUkyalg4QTJMMGdWeGtRSURBUUFCCi0tLS0tRU5EIFBVQkxJQyBLRVktLS0tLQo='
p4
sS'voted'
p5
I0
ss.(dp0
S'9P9FFTHsjYhoYVWKOylnPg8ka+G5sLdprubF8Y1+EME='
p1
(dp2
S'pkey'
p3
S'LS0tLS1CRUdJTiBQVUJMSUMgS0VZLS0tLS0KTUlHZk1BMEdDU3FHU0liM0RRRUJBUVVBQTRHTkFEQ0JpUUtCZ1FDdmVjcUZ3L0FMYU1RS3crUU9aaTgrbVdzWgo0MjFuWGhTQkoxN2JqVldUMmx4QVNBak11UWp3bXlqWW9nQzByY3lQbFFDLzk0Qm9zV2dpWENiY25FK2ZKdCswCktDZm9nQmdQYXA0SFNXQU80elpneTNKTnc1ZmZjYVJZUmRVcnNZSzZjaDVZZC9yV1crT2ZoVEpXOS9yTzB1ZHoKcEs2Y1pwZVZ1aUJ5YzdiR0xRSURBUUFCCi0tLS0tRU5EIFBVQkxJQyBLRVktLS0tLQo='
p4
sS'voted'
p5
I0
ss.(dp0
S'PDF8DhR1hPMkubz0dPcNt01Gd9+amIMr5i0Ndws//9M='
p1
(dp2
S'pkey'
p3
S'LS0tLS1CRUdJTiBQVUJMSUMgS0VZLS0tLS0KTUlHZk1BMEdDU3FHU0liM0RRRUJBUVVBQTRHTkFEQ0JpUUtCZ1FDYVM3VnlwMWs2NzRlMDZMRWtqMStQWDJtRgpDUnNmMHVBVGZDWTBGTm9KS0FvTVJwY2lwam1OVGhkWlljOVpHVnk4TFVJcStRS2Ezb1A4VUlJdmF6TzRRU2R3CnFpL28rRFRENjFZTEVJWjgzZUtaSTgyRUJsL1Bpb2IrNHlzbEplZDlJeDNMcmZkNGJ5SmwvM3hBcXFIUjhzbTAKNnNVbHErdnpYcDZEYnVtMUN3SURBUUFCCi0tLS0tRU5EIFBVQkxJQyBLRVktLS0tLQo='
p4
sS'voted'
p5
I0
ss.(dp0
S'aVExG/ZlG5VXXsEope4IjH0MU7CVCKJjFFf3MNAciLM='
p1
(dp2
S'pkey'
p3
S'LS0tLS1CRUdJTiBQVUJMSUMgS0VZLS0tLS0KTUlHZk1BMEdDU3FHU0liM0RRRUJBUVVBQTRHTkFEQ0JpUUtCZ1FDNFZObkRqaGRYUHdRYTcvcGpQaTIzaVFKZgpMUWlmZUZVZVN1ZDdVSWtJM3ljbDd4WWczbkpwUnlkUFV0MUIyV3pSdjA1SS8rZzFxc0hCZlZ0Q2w2bU16Nlo4CmZNNDdzTU9DRm5xM29iRGMzbnZtMFFSWktEYjhyak16TjVXZWdGeGJncXFQMHFFMElLZVZ4a1JyQ2dEMzJQZ1cKVnA5dlJSNDd0Si9PL1pjRkZRSURBUUFCCi0tLS0tRU5EIFBVQkxJQyBLRVktLS0tLQo='
p4
sS'voted'
p5
I0
ss.(dp0
S'wKDh3y4Zq2/ewDPLOhHW2PiRm7GV3aQLLQ2vuR0Yz98='
p1
(dp2
S'pkey'
p3
S'LS0tLS1CRUdJTiBQVUJMSUMgS0VZLS0tLS0KTUlHZk1BMEdDU3FHU0liM0RRRUJBUVVBQTRHTkFEQ0JpUUtCZ1FDZ2ZCeFdsQWVaUFRCbEtHV28vVDZCYXZhWgpTSkNzMDZ2eURPZXdUSkh5YmR4eGRBVWwzckFVYTA4UCtkU005VWZ0a1NFN2FDcjVRYWYxUEZlTmt5N1FDMllDCkUrenRhNDhPdllydzd6ZUU2Mllta0xtUDA0K3FjZkdwVTJaKzd5N2pEYnpwdjZjZ3Z4a09YSERwN01yYVVmYUYKYTd5SXNSYlBLMW5Fa2ZnMnB3SURBUUFCCi0tLS0tRU5EIFBVQkxJQyBLRVktLS0tLQo='
p4
sS'voted'
p5
I0
ss.(dp0
S'cNKsCJZ7tdop1oRNHjYwALDBlAjDZe57ATrbZFytMA0='
p1
(dp2
S'pkey'
p3
S'LS0tLS1CRUdJTiBQVUJMSUMgS0VZLS0tLS0KTUlHZk1BMEdDU3FHU0liM0RRRUJBUVVBQTRHTkFEQ0JpUUtCZ1FEWjc0SFJLalpNNTJRbkZ6SWNzekIvNElpNwpQcWdWRkxVeXM2Ry9oWDVxaU1GMXJmeFJZamlXNHZTelorWGZ2U3ZCTkcyM2VLMnNSL3ExOFg3dFREUUxnMDlOCi8rMXk5bkJrQ25nMUoySWxqbGlyczQ4TEpqaWJzTUVQc0hkTUkzOGl6RnlSYjdGdzYvdE85UzROeW9zOXJISlkKRE1NQ0hlZUdGTTR1RTlheTZRSURBUUFCCi0tLS0tRU5EIFBVQkxJQyBLRVktLS0tLQo='
p4
sS'voted'
p5
I0
ss.(dp0
S'GGnuYd3RDRgP+zLKGNlCqpO7KW6r7yk+J/0Amuei08s='
p1
(dp2
S'pkey'
p3
S'LS0tLS1CRUdJTiBQVUJMSUMgS0VZLS0tLS0KTUlHZk1BMEdDU3FHU0liM0RRRUJBUVVBQTRHTkFEQ0JpUUtCZ1FDMnl2VnNjNFlJaitWaU5tWDEvZGN4SVQrRQprd1Bwb0U2bW1vcm5SNkY2UU5EMlhzRFRjQmk2MlFZbnBzWmp3MEhrWVB5MmlOT0pNSi9sMzh1Ky9uME1FSDlvCnpZdEFCMFMveTdKQVhsRzYxbzllRmJIREZXK0ZvRG5LSzhlMnIvVndLYnljWUdFR2RUNVViMndWcUNUOGxQT0wKbDM4b2VhMXBmYUpOemhic25RSURBUUFCCi0tLS0tRU5EIFBVQkxJQyBLRVktLS0tLQo='
p4
sS'voted'
p5
I0
ss.(dp0
S'/rTVysuPXCsx1IN7bsigcpuo0evwh0EVpNV3KtjNvts='
p1
(dp2
S'pkey'
p3
S'LS0tLS1CRUdJTiBQVUJMSUMgS0VZLS0tLS0KTUlHZk1BMEdDU3FHU0liM0RRRUJBUVVBQTRHTkFEQ0JpUUtCZ1FEV0Q0b25wemFUVWh4NkJ1aGlnRzE1b0FrMApPR01KM1creWY2aWsyalA2MDZFYnJCVnFScGZJYWV2bUxqQ2RDNjYzRlpaNUVwV1BuS3dUWGxnKzhzMUhSS1FFCmp6bU0rTVdzRUtrd0VUZE92TG40QUJVakJ6UDRVeEFUZVlTMnBNYlBhS0ZmMmlRYTZQbk8rZVBjMytzS2tCVXgKQUxUSjdadWwxZjRUVXdzVFpRSURBUUFCCi0tLS0tRU5EIFBVQkxJQyBLRVktLS0tLQo='
p4
sS'voted'
p5
I0
ss.(dp0
S'2shpDpcIDmAoepgV7urkB9qOMwQ2HvTBaC8DfEmSyL0='
p1
(dp2
S'pkey'
p3
S'LS0tLS1CRUdJTiBQVUJMSUMgS0VZLS0tLS0KTUlHZk1BMEdDU3FHU0liM0RRRUJBUVVBQTRHTkFEQ0JpUUtCZ1FDNVNWYXNXL1hTY0RiRUdWQ0swU3VPY01wVgo0MTgydVNqTmFkS1RVWG12VGV5eGNXbFBiNDcyM2RDVnNRemNDV1Jyc3JDUG9qbjFWWjhxSi8xbmNEVjQrK1c1CnB1ZUN6L3AxWTFuTmNZS2F1ek80d09oLzc2bnk3WEV4VjlINi9aa085Y3pGM0orZzlJcDdIYml4VEIrL3NSeWoKbkcvbkhycE9JUkxBT1UrZnpRSURBUUFCCi0tLS0tRU5EIFBVQkxJQyBLRVktLS0tLQo='
p4
sS'voted'
p5
I0
ss.(dp0
S'Unm0lBWcZHHLpaaAgsyD6gu/iUjTfl/fNxd2+cQ8obE='
p1
(dp2
S'pkey'
p3
S'LS0tLS1CRUdJTiBQVUJMSUMgS0VZLS0tLS0KTUlHZk1BMEdDU3FHU0liM0RRRUJBUVVBQTRHTkFEQ0JpUUtCZ1FEZTVVdVp2Z2hKVXZyMmI1WWVkU2pDQkQvYwpOaVdKMmJZNGJrMmZYSGxMM0h6VVQxMWRwNWdabkpnaHB2cGxZcGRRSGQzdGZQQnZwRDRCZE1QWXMva1llV0lzCkRza0pNbXR6elA2Q1N1dmtoRmNyYmEyRXNMdFdiT3hLYXI4b1BuNER3S2VjRTJFcFg4VEgrMkgrVkxYa3ZLNEYKTjAyWGtEMTZWYU84WWMxNFp3SURBUUFCCi0tLS0tRU5EIFBVQkxJQyBLRVktLS0tLQo='
p4
sS'voted'
p5
I0
ss.(dp0
S'VdN0Xu46+fEjyUyt5fZK7UeU+vvzYIb8QJ9diieBsPk='
p1
(dp2
S'pkey'
p3
S'LS0tLS1CRUdJTiBQVUJMSUMgS0VZLS0tLS0KTUlHZk1BMEdDU3FHU0liM0RRRUJBUVVBQTRHTkFEQ0JpUUtCZ1FDOEUzYlVIdHNLby9nT1lBL0pWM2lTejNJZwpFb05rTVQwbG1KQWlza2c4WnVEbHE2UVVESElEUFk3ZWVvaEhqajV3bjc1OURHTW0rNWhjc0lMdDgvM3dTem92CmsySnJzdzBYVlZ4TktNSVFEeE1HbDJWOTlYZll0QllEL1NINkhtTWJBRUtTbENQaFJyYmYyRGVUcEZPZ1lxazYKVUlMcGQzMnVWbVJUMEdyNnh3SURBUUFCCi0tLS0tRU5EIFBVQkxJQyBLRVktLS0tLQo='
p4
sS'voted'
p5
I0
ss.